
kernel/kernel:     file format elf64-littleriscv


Disassembly of section .text:

0000000080000000 <_entry>:
_entry:
        # set up a stack for C.
        # stack0 is declared in start.c,
        # with a 4096-byte stack per CPU.
        # sp = stack0 + ((hartid + 1) * 4096)
        la sp, stack0
    80000000:	0000a117          	auipc	sp,0xa
    80000004:	18813103          	ld	sp,392(sp) # 8000a188 <_GLOBAL_OFFSET_TABLE_+0x8>
        li a0, 1024*4
    80000008:	6505                	lui	a0,0x1
        csrr a1, mhartid
    8000000a:	f14025f3          	csrr	a1,mhartid
        addi a1, a1, 1
    8000000e:	0585                	addi	a1,a1,1
        mul a0, a0, a1
    80000010:	02b50533          	mul	a0,a0,a1
        add sp, sp, a0
    80000014:	912a                	add	sp,sp,a0
        # jump to start() in start.c
        call start
    80000016:	03e000ef          	jal	80000054 <start>

000000008000001a <spin>:
spin:
        j spin
    8000001a:	a001                	j	8000001a <spin>

000000008000001c <timerinit>:
}

// ask each hart to generate timer interrupts.
void
timerinit()
{
    8000001c:	1141                	addi	sp,sp,-16
    8000001e:	e422                	sd	s0,8(sp)
    80000020:	0800                	addi	s0,sp,16
static inline uint64
r_menvcfg()
{
  uint64 x;
  // asm volatile("csrr %0, menvcfg" : "=r" (x) );
  asm volatile("csrr %0, 0x30a" : "=r"(x));
    80000022:	30a027f3          	csrr	a5,0x30a
  // enable the sstc extension (i.e. stimecmp).
  w_menvcfg(r_menvcfg() | (1L << 63));
    80000026:	577d                	li	a4,-1
    80000028:	177e                	slli	a4,a4,0x3f
    8000002a:	8fd9                	or	a5,a5,a4

static inline void
w_menvcfg(uint64 x)
{
  // asm volatile("csrw menvcfg, %0" : : "r" (x));
  asm volatile("csrw 0x30a, %0" : : "r"(x));
    8000002c:	30a79073          	csrw	0x30a,a5

static inline uint64
r_mcounteren()
{
  uint64 x;
  asm volatile("csrr %0, mcounteren" : "=r"(x));
    80000030:	306027f3          	csrr	a5,mcounteren

  // allow supervisor to use stimecmp and time.
  w_mcounteren(r_mcounteren() | 2);
    80000034:	0027e793          	ori	a5,a5,2
  asm volatile("csrw mcounteren, %0" : : "r"(x));
    80000038:	30679073          	csrw	mcounteren,a5
// machine-mode cycle counter
static inline uint64
r_time()
{
  uint64 x;
  asm volatile("csrr %0, time" : "=r"(x));
    8000003c:	c01027f3          	rdtime	a5

  // ask for the very first timer interrupt.
  w_stimecmp(r_time() + 1000000);
    80000040:	000f4737          	lui	a4,0xf4
    80000044:	24070713          	addi	a4,a4,576 # f4240 <_entry-0x7ff0bdc0>
    80000048:	97ba                	add	a5,a5,a4
  asm volatile("csrw 0x14d, %0" : : "r"(x));
    8000004a:	14d79073          	csrw	stimecmp,a5
}
    8000004e:	6422                	ld	s0,8(sp)
    80000050:	0141                	addi	sp,sp,16
    80000052:	8082                	ret

0000000080000054 <start>:
{
    80000054:	1141                	addi	sp,sp,-16
    80000056:	e406                	sd	ra,8(sp)
    80000058:	e022                	sd	s0,0(sp)
    8000005a:	0800                	addi	s0,sp,16
  asm volatile("csrr %0, mstatus" : "=r"(x));
    8000005c:	300027f3          	csrr	a5,mstatus
  x &= ~MSTATUS_MPP_MASK;
    80000060:	7779                	lui	a4,0xffffe
    80000062:	7ff70713          	addi	a4,a4,2047 # ffffffffffffe7ff <end+0xffffffff7ffdb327>
    80000066:	8ff9                	and	a5,a5,a4
  x |= MSTATUS_MPP_S;
    80000068:	6705                	lui	a4,0x1
    8000006a:	80070713          	addi	a4,a4,-2048 # 800 <_entry-0x7ffff800>
    8000006e:	8fd9                	or	a5,a5,a4
  asm volatile("csrw mstatus, %0" : : "r"(x));
    80000070:	30079073          	csrw	mstatus,a5
  asm volatile("csrw mepc, %0" : : "r"(x));
    80000074:	00001797          	auipc	a5,0x1
    80000078:	d9e78793          	addi	a5,a5,-610 # 80000e12 <main>
    8000007c:	34179073          	csrw	mepc,a5
  asm volatile("csrw satp, %0" : : "r"(x));
    80000080:	4781                	li	a5,0
    80000082:	18079073          	csrw	satp,a5
  asm volatile("csrw medeleg, %0" : : "r"(x));
    80000086:	67c1                	lui	a5,0x10
    80000088:	17fd                	addi	a5,a5,-1 # ffff <_entry-0x7fff0001>
    8000008a:	30279073          	csrw	medeleg,a5
  asm volatile("csrw mideleg, %0" : : "r"(x));
    8000008e:	30379073          	csrw	mideleg,a5
  asm volatile("csrr %0, sie" : "=r"(x));
    80000092:	104027f3          	csrr	a5,sie
  w_sie(r_sie() | SIE_SEIE | SIE_STIE);
    80000096:	2207e793          	ori	a5,a5,544
  asm volatile("csrw sie, %0" : : "r"(x));
    8000009a:	10479073          	csrw	sie,a5
  asm volatile("csrw pmpaddr0, %0" : : "r"(x));
    8000009e:	57fd                	li	a5,-1
    800000a0:	83a9                	srli	a5,a5,0xa
    800000a2:	3b079073          	csrw	pmpaddr0,a5
  asm volatile("csrw pmpcfg0, %0" : : "r"(x));
    800000a6:	47bd                	li	a5,15
    800000a8:	3a079073          	csrw	pmpcfg0,a5
  timerinit();
    800000ac:	f71ff0ef          	jal	8000001c <timerinit>
  asm volatile("csrr %0, mhartid" : "=r"(x));
    800000b0:	f14027f3          	csrr	a5,mhartid
  w_tp(id);
    800000b4:	2781                	sext.w	a5,a5
}

static inline void
w_tp(uint64 x)
{
  asm volatile("mv tp, %0" : : "r"(x));
    800000b6:	823e                	mv	tp,a5
  asm volatile("mret");
    800000b8:	30200073          	mret
}
    800000bc:	60a2                	ld	ra,8(sp)
    800000be:	6402                	ld	s0,0(sp)
    800000c0:	0141                	addi	sp,sp,16
    800000c2:	8082                	ret

00000000800000c4 <consolewrite>:
// user write() system calls to the console go here.
// uses sleep() and UART interrupts.
//
int
consolewrite(int user_src, uint64 src, int n)
{
    800000c4:	7119                	addi	sp,sp,-128
    800000c6:	fc86                	sd	ra,120(sp)
    800000c8:	f8a2                	sd	s0,112(sp)
    800000ca:	f4a6                	sd	s1,104(sp)
    800000cc:	0100                	addi	s0,sp,128
  char buf[32]; // move batches from user space to uart.
  int i = 0;

  while (i < n) {
    800000ce:	06c05a63          	blez	a2,80000142 <consolewrite+0x7e>
    800000d2:	f0ca                	sd	s2,96(sp)
    800000d4:	ecce                	sd	s3,88(sp)
    800000d6:	e8d2                	sd	s4,80(sp)
    800000d8:	e4d6                	sd	s5,72(sp)
    800000da:	e0da                	sd	s6,64(sp)
    800000dc:	fc5e                	sd	s7,56(sp)
    800000de:	f862                	sd	s8,48(sp)
    800000e0:	f466                	sd	s9,40(sp)
    800000e2:	8aaa                	mv	s5,a0
    800000e4:	8b2e                	mv	s6,a1
    800000e6:	8a32                	mv	s4,a2
  int i = 0;
    800000e8:	4481                	li	s1,0
    int nn = sizeof(buf);
    if (nn > n - i)
    800000ea:	02000c13          	li	s8,32
    800000ee:	02000c93          	li	s9,32
      nn = n - i;
    if (either_copyin(buf, user_src, src + i, nn) == -1)
    800000f2:	5bfd                	li	s7,-1
    800000f4:	a035                	j	80000120 <consolewrite+0x5c>
    if (nn > n - i)
    800000f6:	0009099b          	sext.w	s3,s2
    if (either_copyin(buf, user_src, src + i, nn) == -1)
    800000fa:	86ce                	mv	a3,s3
    800000fc:	01648633          	add	a2,s1,s6
    80000100:	85d6                	mv	a1,s5
    80000102:	f8040513          	addi	a0,s0,-128
    80000106:	14e020ef          	jal	80002254 <either_copyin>
    8000010a:	03750e63          	beq	a0,s7,80000146 <consolewrite+0x82>
      break;
    uartwrite(buf, nn);
    8000010e:	85ce                	mv	a1,s3
    80000110:	f8040513          	addi	a0,s0,-128
    80000114:	778000ef          	jal	8000088c <uartwrite>
    i += nn;
    80000118:	009904bb          	addw	s1,s2,s1
  while (i < n) {
    8000011c:	0144da63          	bge	s1,s4,80000130 <consolewrite+0x6c>
    if (nn > n - i)
    80000120:	409a093b          	subw	s2,s4,s1
    80000124:	0009079b          	sext.w	a5,s2
    80000128:	fcfc57e3          	bge	s8,a5,800000f6 <consolewrite+0x32>
    8000012c:	8966                	mv	s2,s9
    8000012e:	b7e1                	j	800000f6 <consolewrite+0x32>
    80000130:	7906                	ld	s2,96(sp)
    80000132:	69e6                	ld	s3,88(sp)
    80000134:	6a46                	ld	s4,80(sp)
    80000136:	6aa6                	ld	s5,72(sp)
    80000138:	6b06                	ld	s6,64(sp)
    8000013a:	7be2                	ld	s7,56(sp)
    8000013c:	7c42                	ld	s8,48(sp)
    8000013e:	7ca2                	ld	s9,40(sp)
    80000140:	a819                	j	80000156 <consolewrite+0x92>
  int i = 0;
    80000142:	4481                	li	s1,0
    80000144:	a809                	j	80000156 <consolewrite+0x92>
    80000146:	7906                	ld	s2,96(sp)
    80000148:	69e6                	ld	s3,88(sp)
    8000014a:	6a46                	ld	s4,80(sp)
    8000014c:	6aa6                	ld	s5,72(sp)
    8000014e:	6b06                	ld	s6,64(sp)
    80000150:	7be2                	ld	s7,56(sp)
    80000152:	7c42                	ld	s8,48(sp)
    80000154:	7ca2                	ld	s9,40(sp)
  }

  return i;
}
    80000156:	8526                	mv	a0,s1
    80000158:	70e6                	ld	ra,120(sp)
    8000015a:	7446                	ld	s0,112(sp)
    8000015c:	74a6                	ld	s1,104(sp)
    8000015e:	6109                	addi	sp,sp,128
    80000160:	8082                	ret

0000000080000162 <consoleread>:
// user_dst indicates whether dst is a user
// or kernel address.
//
int
consoleread(int user_dst, uint64 dst, int n)
{
    80000162:	711d                	addi	sp,sp,-96
    80000164:	ec86                	sd	ra,88(sp)
    80000166:	e8a2                	sd	s0,80(sp)
    80000168:	e4a6                	sd	s1,72(sp)
    8000016a:	e0ca                	sd	s2,64(sp)
    8000016c:	fc4e                	sd	s3,56(sp)
    8000016e:	f852                	sd	s4,48(sp)
    80000170:	f456                	sd	s5,40(sp)
    80000172:	f05a                	sd	s6,32(sp)
    80000174:	1080                	addi	s0,sp,96
    80000176:	8aaa                	mv	s5,a0
    80000178:	8a2e                	mv	s4,a1
    8000017a:	89b2                	mv	s3,a2
  uint target;
  int c;
  char cbuf;

  target = n;
    8000017c:	00060b1b          	sext.w	s6,a2
  acquire(&cons.lock);
    80000180:	00012517          	auipc	a0,0x12
    80000184:	05050513          	addi	a0,a0,80 # 800121d0 <cons>
    80000188:	225000ef          	jal	80000bac <acquire>
  while (n > 0) {
    // wait until interrupt handler has put some
    // input into cons.buffer.
    while (cons.r == cons.w) {
    8000018c:	00012497          	auipc	s1,0x12
    80000190:	04448493          	addi	s1,s1,68 # 800121d0 <cons>
      if (killed(myproc())) {
        release(&cons.lock);
        return -1;
      }
      sleep(&cons.r, &cons.lock);
    80000194:	00012917          	auipc	s2,0x12
    80000198:	0d490913          	addi	s2,s2,212 # 80012268 <cons+0x98>
  while (n > 0) {
    8000019c:	0b305d63          	blez	s3,80000256 <consoleread+0xf4>
    while (cons.r == cons.w) {
    800001a0:	0984a783          	lw	a5,152(s1)
    800001a4:	09c4a703          	lw	a4,156(s1)
    800001a8:	0af71263          	bne	a4,a5,8000024c <consoleread+0xea>
      if (killed(myproc())) {
    800001ac:	6f8010ef          	jal	800018a4 <myproc>
    800001b0:	737010ef          	jal	800020e6 <killed>
    800001b4:	e12d                	bnez	a0,80000216 <consoleread+0xb4>
      sleep(&cons.r, &cons.lock);
    800001b6:	85a6                	mv	a1,s1
    800001b8:	854a                	mv	a0,s2
    800001ba:	4f5010ef          	jal	80001eae <sleep>
    while (cons.r == cons.w) {
    800001be:	0984a783          	lw	a5,152(s1)
    800001c2:	09c4a703          	lw	a4,156(s1)
    800001c6:	fef703e3          	beq	a4,a5,800001ac <consoleread+0x4a>
    800001ca:	ec5e                	sd	s7,24(sp)
    }

    c = cons.buf[cons.r++ % INPUT_BUF_SIZE];
    800001cc:	00012717          	auipc	a4,0x12
    800001d0:	00470713          	addi	a4,a4,4 # 800121d0 <cons>
    800001d4:	0017869b          	addiw	a3,a5,1
    800001d8:	08d72c23          	sw	a3,152(a4)
    800001dc:	07f7f693          	andi	a3,a5,127
    800001e0:	9736                	add	a4,a4,a3
    800001e2:	01874703          	lbu	a4,24(a4)
    800001e6:	00070b9b          	sext.w	s7,a4

    if (c == C('D')) { // end-of-file
    800001ea:	4691                	li	a3,4
    800001ec:	04db8663          	beq	s7,a3,80000238 <consoleread+0xd6>
      }
      break;
    }

    // copy the input byte to the user-space buffer.
    cbuf = c;
    800001f0:	fae407a3          	sb	a4,-81(s0)
    if (either_copyout(user_dst, dst, &cbuf, 1) == -1)
    800001f4:	4685                	li	a3,1
    800001f6:	faf40613          	addi	a2,s0,-81
    800001fa:	85d2                	mv	a1,s4
    800001fc:	8556                	mv	a0,s5
    800001fe:	00c020ef          	jal	8000220a <either_copyout>
    80000202:	57fd                	li	a5,-1
    80000204:	04f50863          	beq	a0,a5,80000254 <consoleread+0xf2>
      break;

    dst++;
    80000208:	0a05                	addi	s4,s4,1
    --n;
    8000020a:	39fd                	addiw	s3,s3,-1

    if (c == '\n') {
    8000020c:	47a9                	li	a5,10
    8000020e:	04fb8d63          	beq	s7,a5,80000268 <consoleread+0x106>
    80000212:	6be2                	ld	s7,24(sp)
    80000214:	b761                	j	8000019c <consoleread+0x3a>
        release(&cons.lock);
    80000216:	00012517          	auipc	a0,0x12
    8000021a:	fba50513          	addi	a0,a0,-70 # 800121d0 <cons>
    8000021e:	223000ef          	jal	80000c40 <release>
        return -1;
    80000222:	557d                	li	a0,-1
    }
  }
  release(&cons.lock);

  return target - n;
}
    80000224:	60e6                	ld	ra,88(sp)
    80000226:	6446                	ld	s0,80(sp)
    80000228:	64a6                	ld	s1,72(sp)
    8000022a:	6906                	ld	s2,64(sp)
    8000022c:	79e2                	ld	s3,56(sp)
    8000022e:	7a42                	ld	s4,48(sp)
    80000230:	7aa2                	ld	s5,40(sp)
    80000232:	7b02                	ld	s6,32(sp)
    80000234:	6125                	addi	sp,sp,96
    80000236:	8082                	ret
      if (n < target) {
    80000238:	0009871b          	sext.w	a4,s3
    8000023c:	01677a63          	bgeu	a4,s6,80000250 <consoleread+0xee>
        cons.r--;
    80000240:	00012717          	auipc	a4,0x12
    80000244:	02f72423          	sw	a5,40(a4) # 80012268 <cons+0x98>
    80000248:	6be2                	ld	s7,24(sp)
    8000024a:	a031                	j	80000256 <consoleread+0xf4>
    8000024c:	ec5e                	sd	s7,24(sp)
    8000024e:	bfbd                	j	800001cc <consoleread+0x6a>
    80000250:	6be2                	ld	s7,24(sp)
    80000252:	a011                	j	80000256 <consoleread+0xf4>
    80000254:	6be2                	ld	s7,24(sp)
  release(&cons.lock);
    80000256:	00012517          	auipc	a0,0x12
    8000025a:	f7a50513          	addi	a0,a0,-134 # 800121d0 <cons>
    8000025e:	1e3000ef          	jal	80000c40 <release>
  return target - n;
    80000262:	413b053b          	subw	a0,s6,s3
    80000266:	bf7d                	j	80000224 <consoleread+0xc2>
    80000268:	6be2                	ld	s7,24(sp)
    8000026a:	b7f5                	j	80000256 <consoleread+0xf4>

000000008000026c <consputc>:
{
    8000026c:	1141                	addi	sp,sp,-16
    8000026e:	e406                	sd	ra,8(sp)
    80000270:	e022                	sd	s0,0(sp)
    80000272:	0800                	addi	s0,sp,16
  if (c == BACKSPACE) {
    80000274:	10000793          	li	a5,256
    80000278:	00f50863          	beq	a0,a5,80000288 <consputc+0x1c>
    uartputc_sync(c);
    8000027c:	6a4000ef          	jal	80000920 <uartputc_sync>
}
    80000280:	60a2                	ld	ra,8(sp)
    80000282:	6402                	ld	s0,0(sp)
    80000284:	0141                	addi	sp,sp,16
    80000286:	8082                	ret
    uartputc_sync('\b');
    80000288:	4521                	li	a0,8
    8000028a:	696000ef          	jal	80000920 <uartputc_sync>
    uartputc_sync(' ');
    8000028e:	02000513          	li	a0,32
    80000292:	68e000ef          	jal	80000920 <uartputc_sync>
    uartputc_sync('\b');
    80000296:	4521                	li	a0,8
    80000298:	688000ef          	jal	80000920 <uartputc_sync>
    8000029c:	b7d5                	j	80000280 <consputc+0x14>

000000008000029e <consoleintr>:
// do erase/kill processing, append to cons.buf,
// wake up consoleread() if a whole line has arrived.
//
void
consoleintr(int c)
{
    8000029e:	1101                	addi	sp,sp,-32
    800002a0:	ec06                	sd	ra,24(sp)
    800002a2:	e822                	sd	s0,16(sp)
    800002a4:	e426                	sd	s1,8(sp)
    800002a6:	1000                	addi	s0,sp,32
    800002a8:	84aa                	mv	s1,a0
  acquire(&cons.lock);
    800002aa:	00012517          	auipc	a0,0x12
    800002ae:	f2650513          	addi	a0,a0,-218 # 800121d0 <cons>
    800002b2:	0fb000ef          	jal	80000bac <acquire>

  switch (c) {
    800002b6:	47d5                	li	a5,21
    800002b8:	08f48f63          	beq	s1,a5,80000356 <consoleintr+0xb8>
    800002bc:	0297c563          	blt	a5,s1,800002e6 <consoleintr+0x48>
    800002c0:	47a1                	li	a5,8
    800002c2:	0ef48463          	beq	s1,a5,800003aa <consoleintr+0x10c>
    800002c6:	47c1                	li	a5,16
    800002c8:	10f49563          	bne	s1,a5,800003d2 <consoleintr+0x134>
  case C('P'): // Print process list.
    procdump();
    800002cc:	7d3010ef          	jal	8000229e <procdump>
      }
    }
    break;
  }

  release(&cons.lock);
    800002d0:	00012517          	auipc	a0,0x12
    800002d4:	f0050513          	addi	a0,a0,-256 # 800121d0 <cons>
    800002d8:	169000ef          	jal	80000c40 <release>
}
    800002dc:	60e2                	ld	ra,24(sp)
    800002de:	6442                	ld	s0,16(sp)
    800002e0:	64a2                	ld	s1,8(sp)
    800002e2:	6105                	addi	sp,sp,32
    800002e4:	8082                	ret
  switch (c) {
    800002e6:	07f00793          	li	a5,127
    800002ea:	0cf48063          	beq	s1,a5,800003aa <consoleintr+0x10c>
    if (c != 0 && cons.e - cons.r < INPUT_BUF_SIZE) {
    800002ee:	00012717          	auipc	a4,0x12
    800002f2:	ee270713          	addi	a4,a4,-286 # 800121d0 <cons>
    800002f6:	0a072783          	lw	a5,160(a4)
    800002fa:	09872703          	lw	a4,152(a4)
    800002fe:	9f99                	subw	a5,a5,a4
    80000300:	07f00713          	li	a4,127
    80000304:	fcf766e3          	bltu	a4,a5,800002d0 <consoleintr+0x32>
      c = (c == '\r') ? '\n' : c;
    80000308:	47b5                	li	a5,13
    8000030a:	0cf48763          	beq	s1,a5,800003d8 <consoleintr+0x13a>
      consputc(c);
    8000030e:	8526                	mv	a0,s1
    80000310:	f5dff0ef          	jal	8000026c <consputc>
      cons.buf[cons.e++ % INPUT_BUF_SIZE] = c;
    80000314:	00012797          	auipc	a5,0x12
    80000318:	ebc78793          	addi	a5,a5,-324 # 800121d0 <cons>
    8000031c:	0a07a683          	lw	a3,160(a5)
    80000320:	0016871b          	addiw	a4,a3,1
    80000324:	0007061b          	sext.w	a2,a4
    80000328:	0ae7a023          	sw	a4,160(a5)
    8000032c:	07f6f693          	andi	a3,a3,127
    80000330:	97b6                	add	a5,a5,a3
    80000332:	00978c23          	sb	s1,24(a5)
      if (c == '\n' || c == C('D') || cons.e - cons.r == INPUT_BUF_SIZE) {
    80000336:	47a9                	li	a5,10
    80000338:	0cf48563          	beq	s1,a5,80000402 <consoleintr+0x164>
    8000033c:	4791                	li	a5,4
    8000033e:	0cf48263          	beq	s1,a5,80000402 <consoleintr+0x164>
    80000342:	00012797          	auipc	a5,0x12
    80000346:	f267a783          	lw	a5,-218(a5) # 80012268 <cons+0x98>
    8000034a:	9f1d                	subw	a4,a4,a5
    8000034c:	08000793          	li	a5,128
    80000350:	f8f710e3          	bne	a4,a5,800002d0 <consoleintr+0x32>
    80000354:	a07d                	j	80000402 <consoleintr+0x164>
    80000356:	e04a                	sd	s2,0(sp)
    while (cons.e != cons.w &&
    80000358:	00012717          	auipc	a4,0x12
    8000035c:	e7870713          	addi	a4,a4,-392 # 800121d0 <cons>
    80000360:	0a072783          	lw	a5,160(a4)
    80000364:	09c72703          	lw	a4,156(a4)
           cons.buf[(cons.e - 1) % INPUT_BUF_SIZE] != '\n') {
    80000368:	00012497          	auipc	s1,0x12
    8000036c:	e6848493          	addi	s1,s1,-408 # 800121d0 <cons>
    while (cons.e != cons.w &&
    80000370:	4929                	li	s2,10
    80000372:	02f70863          	beq	a4,a5,800003a2 <consoleintr+0x104>
           cons.buf[(cons.e - 1) % INPUT_BUF_SIZE] != '\n') {
    80000376:	37fd                	addiw	a5,a5,-1
    80000378:	07f7f713          	andi	a4,a5,127
    8000037c:	9726                	add	a4,a4,s1
    while (cons.e != cons.w &&
    8000037e:	01874703          	lbu	a4,24(a4)
    80000382:	03270263          	beq	a4,s2,800003a6 <consoleintr+0x108>
      cons.e--;
    80000386:	0af4a023          	sw	a5,160(s1)
      consputc(BACKSPACE);
    8000038a:	10000513          	li	a0,256
    8000038e:	edfff0ef          	jal	8000026c <consputc>
    while (cons.e != cons.w &&
    80000392:	0a04a783          	lw	a5,160(s1)
    80000396:	09c4a703          	lw	a4,156(s1)
    8000039a:	fcf71ee3          	bne	a4,a5,80000376 <consoleintr+0xd8>
    8000039e:	6902                	ld	s2,0(sp)
    800003a0:	bf05                	j	800002d0 <consoleintr+0x32>
    800003a2:	6902                	ld	s2,0(sp)
    800003a4:	b735                	j	800002d0 <consoleintr+0x32>
    800003a6:	6902                	ld	s2,0(sp)
    800003a8:	b725                	j	800002d0 <consoleintr+0x32>
    if (cons.e != cons.w) {
    800003aa:	00012717          	auipc	a4,0x12
    800003ae:	e2670713          	addi	a4,a4,-474 # 800121d0 <cons>
    800003b2:	0a072783          	lw	a5,160(a4)
    800003b6:	09c72703          	lw	a4,156(a4)
    800003ba:	f0f70be3          	beq	a4,a5,800002d0 <consoleintr+0x32>
      cons.e--;
    800003be:	37fd                	addiw	a5,a5,-1
    800003c0:	00012717          	auipc	a4,0x12
    800003c4:	eaf72823          	sw	a5,-336(a4) # 80012270 <cons+0xa0>
      consputc(BACKSPACE);
    800003c8:	10000513          	li	a0,256
    800003cc:	ea1ff0ef          	jal	8000026c <consputc>
    800003d0:	b701                	j	800002d0 <consoleintr+0x32>
    if (c != 0 && cons.e - cons.r < INPUT_BUF_SIZE) {
    800003d2:	ee048fe3          	beqz	s1,800002d0 <consoleintr+0x32>
    800003d6:	bf21                	j	800002ee <consoleintr+0x50>
      consputc(c);
    800003d8:	4529                	li	a0,10
    800003da:	e93ff0ef          	jal	8000026c <consputc>
      cons.buf[cons.e++ % INPUT_BUF_SIZE] = c;
    800003de:	00012797          	auipc	a5,0x12
    800003e2:	df278793          	addi	a5,a5,-526 # 800121d0 <cons>
    800003e6:	0a07a703          	lw	a4,160(a5)
    800003ea:	0017069b          	addiw	a3,a4,1
    800003ee:	0006861b          	sext.w	a2,a3
    800003f2:	0ad7a023          	sw	a3,160(a5)
    800003f6:	07f77713          	andi	a4,a4,127
    800003fa:	97ba                	add	a5,a5,a4
    800003fc:	4729                	li	a4,10
    800003fe:	00e78c23          	sb	a4,24(a5)
        cons.w = cons.e;
    80000402:	00012797          	auipc	a5,0x12
    80000406:	e6c7a523          	sw	a2,-406(a5) # 8001226c <cons+0x9c>
        wakeup(&cons.r);
    8000040a:	00012517          	auipc	a0,0x12
    8000040e:	e5e50513          	addi	a0,a0,-418 # 80012268 <cons+0x98>
    80000412:	2e9010ef          	jal	80001efa <wakeup>
    80000416:	bd6d                	j	800002d0 <consoleintr+0x32>

0000000080000418 <consoleinit>:

void
consoleinit(void)
{
    80000418:	1141                	addi	sp,sp,-16
    8000041a:	e406                	sd	ra,8(sp)
    8000041c:	e022                	sd	s0,0(sp)
    8000041e:	0800                	addi	s0,sp,16
  initlock(&cons.lock, "cons");
    80000420:	00007597          	auipc	a1,0x7
    80000424:	be058593          	addi	a1,a1,-1056 # 80007000 <etext>
    80000428:	00012517          	auipc	a0,0x12
    8000042c:	da850513          	addi	a0,a0,-600 # 800121d0 <cons>
    80000430:	6fc000ef          	jal	80000b2c <initlock>

  uartinit();
    80000434:	400000ef          	jal	80000834 <uartinit>

  // connect read and write system calls
  // to consoleread and consolewrite.
  devsw[CONSOLE].read = consoleread;
    80000438:	00022797          	auipc	a5,0x22
    8000043c:	f0878793          	addi	a5,a5,-248 # 80022340 <devsw>
    80000440:	00000717          	auipc	a4,0x0
    80000444:	d2270713          	addi	a4,a4,-734 # 80000162 <consoleread>
    80000448:	eb98                	sd	a4,16(a5)
  devsw[CONSOLE].write = consolewrite;
    8000044a:	00000717          	auipc	a4,0x0
    8000044e:	c7a70713          	addi	a4,a4,-902 # 800000c4 <consolewrite>
    80000452:	ef98                	sd	a4,24(a5)
}
    80000454:	60a2                	ld	ra,8(sp)
    80000456:	6402                	ld	s0,0(sp)
    80000458:	0141                	addi	sp,sp,16
    8000045a:	8082                	ret

000000008000045c <printint>:

static char digits[] = "0123456789abcdef";

static void
printint(long long xx, int base, int sign)
{
    8000045c:	7139                	addi	sp,sp,-64
    8000045e:	fc06                	sd	ra,56(sp)
    80000460:	f822                	sd	s0,48(sp)
    80000462:	0080                	addi	s0,sp,64
  char buf[20];
  int i;
  unsigned long long x;

  if (sign && (sign = (xx < 0)))
    80000464:	c219                	beqz	a2,8000046a <printint+0xe>
    80000466:	08054063          	bltz	a0,800004e6 <printint+0x8a>
    x = -xx;
  else
    x = xx;
    8000046a:	4881                	li	a7,0
    8000046c:	fc840693          	addi	a3,s0,-56

  i = 0;
    80000470:	4781                	li	a5,0
  do {
    buf[i++] = digits[x % base];
    80000472:	00007617          	auipc	a2,0x7
    80000476:	29e60613          	addi	a2,a2,670 # 80007710 <digits>
    8000047a:	883e                	mv	a6,a5
    8000047c:	2785                	addiw	a5,a5,1
    8000047e:	02b57733          	remu	a4,a0,a1
    80000482:	9732                	add	a4,a4,a2
    80000484:	00074703          	lbu	a4,0(a4)
    80000488:	00e68023          	sb	a4,0(a3)
  } while ((x /= base) != 0);
    8000048c:	872a                	mv	a4,a0
    8000048e:	02b55533          	divu	a0,a0,a1
    80000492:	0685                	addi	a3,a3,1
    80000494:	feb773e3          	bgeu	a4,a1,8000047a <printint+0x1e>

  if (sign)
    80000498:	00088a63          	beqz	a7,800004ac <printint+0x50>
    buf[i++] = '-';
    8000049c:	1781                	addi	a5,a5,-32
    8000049e:	97a2                	add	a5,a5,s0
    800004a0:	02d00713          	li	a4,45
    800004a4:	fee78423          	sb	a4,-24(a5)
    800004a8:	0028079b          	addiw	a5,a6,2

  while (--i >= 0)
    800004ac:	02f05963          	blez	a5,800004de <printint+0x82>
    800004b0:	f426                	sd	s1,40(sp)
    800004b2:	f04a                	sd	s2,32(sp)
    800004b4:	fc840713          	addi	a4,s0,-56
    800004b8:	00f704b3          	add	s1,a4,a5
    800004bc:	fff70913          	addi	s2,a4,-1
    800004c0:	993e                	add	s2,s2,a5
    800004c2:	37fd                	addiw	a5,a5,-1
    800004c4:	1782                	slli	a5,a5,0x20
    800004c6:	9381                	srli	a5,a5,0x20
    800004c8:	40f90933          	sub	s2,s2,a5
    consputc(buf[i]);
    800004cc:	fff4c503          	lbu	a0,-1(s1)
    800004d0:	d9dff0ef          	jal	8000026c <consputc>
  while (--i >= 0)
    800004d4:	14fd                	addi	s1,s1,-1
    800004d6:	ff249be3          	bne	s1,s2,800004cc <printint+0x70>
    800004da:	74a2                	ld	s1,40(sp)
    800004dc:	7902                	ld	s2,32(sp)
}
    800004de:	70e2                	ld	ra,56(sp)
    800004e0:	7442                	ld	s0,48(sp)
    800004e2:	6121                	addi	sp,sp,64
    800004e4:	8082                	ret
    x = -xx;
    800004e6:	40a00533          	neg	a0,a0
  if (sign && (sign = (xx < 0)))
    800004ea:	4885                	li	a7,1
    x = -xx;
    800004ec:	b741                	j	8000046c <printint+0x10>

00000000800004ee <printk>:
}

// Print to the console.
int
printk(char *fmt, ...)
{
    800004ee:	7131                	addi	sp,sp,-192
    800004f0:	fc86                	sd	ra,120(sp)
    800004f2:	f8a2                	sd	s0,112(sp)
    800004f4:	e8d2                	sd	s4,80(sp)
    800004f6:	0100                	addi	s0,sp,128
    800004f8:	8a2a                	mv	s4,a0
    800004fa:	e40c                	sd	a1,8(s0)
    800004fc:	e810                	sd	a2,16(s0)
    800004fe:	ec14                	sd	a3,24(s0)
    80000500:	f018                	sd	a4,32(s0)
    80000502:	f41c                	sd	a5,40(s0)
    80000504:	03043823          	sd	a6,48(s0)
    80000508:	03143c23          	sd	a7,56(s0)
  va_list ap;
  int i, cx, c0, c1, c2;
  char *s;

  if (panicking == 0)
    8000050c:	0000a797          	auipc	a5,0xa
    80000510:	c987a783          	lw	a5,-872(a5) # 8000a1a4 <panicking>
    80000514:	c3a1                	beqz	a5,80000554 <printk+0x66>
    acquire(&pr.lock);

  va_start(ap, fmt);
    80000516:	00840793          	addi	a5,s0,8
    8000051a:	f8f43423          	sd	a5,-120(s0)
  for (i = 0; (cx = fmt[i] & 0xff) != 0; i++) {
    8000051e:	000a4503          	lbu	a0,0(s4)
    80000522:	28050763          	beqz	a0,800007b0 <printk+0x2c2>
    80000526:	f4a6                	sd	s1,104(sp)
    80000528:	f0ca                	sd	s2,96(sp)
    8000052a:	ecce                	sd	s3,88(sp)
    8000052c:	e4d6                	sd	s5,72(sp)
    8000052e:	e0da                	sd	s6,64(sp)
    80000530:	f862                	sd	s8,48(sp)
    80000532:	f466                	sd	s9,40(sp)
    80000534:	f06a                	sd	s10,32(sp)
    80000536:	ec6e                	sd	s11,24(sp)
    80000538:	4981                	li	s3,0
    if (cx != '%') {
    8000053a:	02500a93          	li	s5,37
    c1 = c2 = 0;
    if (c0)
      c1 = fmt[i + 1] & 0xff;
    if (c1)
      c2 = fmt[i + 2] & 0xff;
    if (c0 == 'd') {
    8000053e:	06400b13          	li	s6,100
      printint(va_arg(ap, int), 10, 1);
    } else if (c0 == 'l' && c1 == 'd') {
    80000542:	06c00c13          	li	s8,108
      printint(va_arg(ap, uint64), 10, 1);
      i += 1;
    } else if (c0 == 'l' && c1 == 'l' && c2 == 'd') {
      printint(va_arg(ap, uint64), 10, 1);
      i += 2;
    } else if (c0 == 'u') {
    80000546:	07500c93          	li	s9,117
      printint(va_arg(ap, uint64), 10, 0);
      i += 1;
    } else if (c0 == 'l' && c1 == 'l' && c2 == 'u') {
      printint(va_arg(ap, uint64), 10, 0);
      i += 2;
    } else if (c0 == 'x') {
    8000054a:	07800d13          	li	s10,120
      printint(va_arg(ap, uint64), 16, 0);
      i += 1;
    } else if (c0 == 'l' && c1 == 'l' && c2 == 'x') {
      printint(va_arg(ap, uint64), 16, 0);
      i += 2;
    } else if (c0 == 'p') {
    8000054e:	07000d93          	li	s11,112
    80000552:	a01d                	j	80000578 <printk+0x8a>
    acquire(&pr.lock);
    80000554:	00012517          	auipc	a0,0x12
    80000558:	d2450513          	addi	a0,a0,-732 # 80012278 <pr>
    8000055c:	650000ef          	jal	80000bac <acquire>
    80000560:	bf5d                	j	80000516 <printk+0x28>
      consputc(cx);
    80000562:	d0bff0ef          	jal	8000026c <consputc>
      continue;
    80000566:	84ce                	mv	s1,s3
  for (i = 0; (cx = fmt[i] & 0xff) != 0; i++) {
    80000568:	0014899b          	addiw	s3,s1,1
    8000056c:	013a07b3          	add	a5,s4,s3
    80000570:	0007c503          	lbu	a0,0(a5)
    80000574:	20050b63          	beqz	a0,8000078a <printk+0x29c>
    if (cx != '%') {
    80000578:	ff5515e3          	bne	a0,s5,80000562 <printk+0x74>
    i++;
    8000057c:	0019849b          	addiw	s1,s3,1
    c0 = fmt[i + 0] & 0xff;
    80000580:	009a07b3          	add	a5,s4,s1
    80000584:	0007c903          	lbu	s2,0(a5)
    if (c0)
    80000588:	20090b63          	beqz	s2,8000079e <printk+0x2b0>
      c1 = fmt[i + 1] & 0xff;
    8000058c:	0017c783          	lbu	a5,1(a5)
    c1 = c2 = 0;
    80000590:	86be                	mv	a3,a5
    if (c1)
    80000592:	c789                	beqz	a5,8000059c <printk+0xae>
      c2 = fmt[i + 2] & 0xff;
    80000594:	009a0733          	add	a4,s4,s1
    80000598:	00274683          	lbu	a3,2(a4)
    if (c0 == 'd') {
    8000059c:	03690963          	beq	s2,s6,800005ce <printk+0xe0>
    } else if (c0 == 'l' && c1 == 'd') {
    800005a0:	05890363          	beq	s2,s8,800005e6 <printk+0xf8>
    } else if (c0 == 'u') {
    800005a4:	0d990663          	beq	s2,s9,80000670 <printk+0x182>
    } else if (c0 == 'x') {
    800005a8:	11a90d63          	beq	s2,s10,800006c2 <printk+0x1d4>
    } else if (c0 == 'p') {
    800005ac:	15b90663          	beq	s2,s11,800006f8 <printk+0x20a>
      printptr(va_arg(ap, uint64));
    } else if (c0 == 'c') {
    800005b0:	06300793          	li	a5,99
    800005b4:	18f90563          	beq	s2,a5,8000073e <printk+0x250>
      consputc(va_arg(ap, uint));
    } else if (c0 == 's') {
    800005b8:	07300793          	li	a5,115
    800005bc:	18f90b63          	beq	s2,a5,80000752 <printk+0x264>
      if ((s = va_arg(ap, char *)) == 0)
        s = "(null)";
      for (; *s; s++)
        consputc(*s);
    } else if (c0 == '%') {
    800005c0:	03591b63          	bne	s2,s5,800005f6 <printk+0x108>
      consputc('%');
    800005c4:	02500513          	li	a0,37
    800005c8:	ca5ff0ef          	jal	8000026c <consputc>
    800005cc:	bf71                	j	80000568 <printk+0x7a>
      printint(va_arg(ap, int), 10, 1);
    800005ce:	f8843783          	ld	a5,-120(s0)
    800005d2:	00878713          	addi	a4,a5,8
    800005d6:	f8e43423          	sd	a4,-120(s0)
    800005da:	4605                	li	a2,1
    800005dc:	45a9                	li	a1,10
    800005de:	4388                	lw	a0,0(a5)
    800005e0:	e7dff0ef          	jal	8000045c <printint>
    800005e4:	b751                	j	80000568 <printk+0x7a>
    } else if (c0 == 'l' && c1 == 'd') {
    800005e6:	01678f63          	beq	a5,s6,80000604 <printk+0x116>
    } else if (c0 == 'l' && c1 == 'l' && c2 == 'd') {
    800005ea:	03878b63          	beq	a5,s8,80000620 <printk+0x132>
    } else if (c0 == 'l' && c1 == 'u') {
    800005ee:	09978e63          	beq	a5,s9,8000068a <printk+0x19c>
    } else if (c0 == 'l' && c1 == 'x') {
    800005f2:	0fa78563          	beq	a5,s10,800006dc <printk+0x1ee>
    } else if (c0 == 0) {
      break;
    } else {
      // Print unknown % sequence to draw attention.
      consputc('%');
    800005f6:	8556                	mv	a0,s5
    800005f8:	c75ff0ef          	jal	8000026c <consputc>
      consputc(c0);
    800005fc:	854a                	mv	a0,s2
    800005fe:	c6fff0ef          	jal	8000026c <consputc>
    80000602:	b79d                	j	80000568 <printk+0x7a>
      printint(va_arg(ap, uint64), 10, 1);
    80000604:	f8843783          	ld	a5,-120(s0)
    80000608:	00878713          	addi	a4,a5,8
    8000060c:	f8e43423          	sd	a4,-120(s0)
    80000610:	4605                	li	a2,1
    80000612:	45a9                	li	a1,10
    80000614:	6388                	ld	a0,0(a5)
    80000616:	e47ff0ef          	jal	8000045c <printint>
      i += 1;
    8000061a:	0029849b          	addiw	s1,s3,2
    8000061e:	b7a9                	j	80000568 <printk+0x7a>
    } else if (c0 == 'l' && c1 == 'l' && c2 == 'd') {
    80000620:	06400793          	li	a5,100
    80000624:	02f68863          	beq	a3,a5,80000654 <printk+0x166>
    } else if (c0 == 'l' && c1 == 'l' && c2 == 'u') {
    80000628:	07500793          	li	a5,117
    8000062c:	06f68d63          	beq	a3,a5,800006a6 <printk+0x1b8>
    } else if (c0 == 'l' && c1 == 'l' && c2 == 'x') {
    80000630:	07800793          	li	a5,120
    80000634:	fcf691e3          	bne	a3,a5,800005f6 <printk+0x108>
      printint(va_arg(ap, uint64), 16, 0);
    80000638:	f8843783          	ld	a5,-120(s0)
    8000063c:	00878713          	addi	a4,a5,8
    80000640:	f8e43423          	sd	a4,-120(s0)
    80000644:	4601                	li	a2,0
    80000646:	45c1                	li	a1,16
    80000648:	6388                	ld	a0,0(a5)
    8000064a:	e13ff0ef          	jal	8000045c <printint>
      i += 2;
    8000064e:	0039849b          	addiw	s1,s3,3
    80000652:	bf19                	j	80000568 <printk+0x7a>
      printint(va_arg(ap, uint64), 10, 1);
    80000654:	f8843783          	ld	a5,-120(s0)
    80000658:	00878713          	addi	a4,a5,8
    8000065c:	f8e43423          	sd	a4,-120(s0)
    80000660:	4605                	li	a2,1
    80000662:	45a9                	li	a1,10
    80000664:	6388                	ld	a0,0(a5)
    80000666:	df7ff0ef          	jal	8000045c <printint>
      i += 2;
    8000066a:	0039849b          	addiw	s1,s3,3
    8000066e:	bded                	j	80000568 <printk+0x7a>
      printint(va_arg(ap, uint32), 10, 0);
    80000670:	f8843783          	ld	a5,-120(s0)
    80000674:	00878713          	addi	a4,a5,8
    80000678:	f8e43423          	sd	a4,-120(s0)
    8000067c:	4601                	li	a2,0
    8000067e:	45a9                	li	a1,10
    80000680:	0007e503          	lwu	a0,0(a5)
    80000684:	dd9ff0ef          	jal	8000045c <printint>
    80000688:	b5c5                	j	80000568 <printk+0x7a>
      printint(va_arg(ap, uint64), 10, 0);
    8000068a:	f8843783          	ld	a5,-120(s0)
    8000068e:	00878713          	addi	a4,a5,8
    80000692:	f8e43423          	sd	a4,-120(s0)
    80000696:	4601                	li	a2,0
    80000698:	45a9                	li	a1,10
    8000069a:	6388                	ld	a0,0(a5)
    8000069c:	dc1ff0ef          	jal	8000045c <printint>
      i += 1;
    800006a0:	0029849b          	addiw	s1,s3,2
    800006a4:	b5d1                	j	80000568 <printk+0x7a>
      printint(va_arg(ap, uint64), 10, 0);
    800006a6:	f8843783          	ld	a5,-120(s0)
    800006aa:	00878713          	addi	a4,a5,8
    800006ae:	f8e43423          	sd	a4,-120(s0)
    800006b2:	4601                	li	a2,0
    800006b4:	45a9                	li	a1,10
    800006b6:	6388                	ld	a0,0(a5)
    800006b8:	da5ff0ef          	jal	8000045c <printint>
      i += 2;
    800006bc:	0039849b          	addiw	s1,s3,3
    800006c0:	b565                	j	80000568 <printk+0x7a>
      printint(va_arg(ap, uint32), 16, 0);
    800006c2:	f8843783          	ld	a5,-120(s0)
    800006c6:	00878713          	addi	a4,a5,8
    800006ca:	f8e43423          	sd	a4,-120(s0)
    800006ce:	4601                	li	a2,0
    800006d0:	45c1                	li	a1,16
    800006d2:	0007e503          	lwu	a0,0(a5)
    800006d6:	d87ff0ef          	jal	8000045c <printint>
    800006da:	b579                	j	80000568 <printk+0x7a>
      printint(va_arg(ap, uint64), 16, 0);
    800006dc:	f8843783          	ld	a5,-120(s0)
    800006e0:	00878713          	addi	a4,a5,8
    800006e4:	f8e43423          	sd	a4,-120(s0)
    800006e8:	4601                	li	a2,0
    800006ea:	45c1                	li	a1,16
    800006ec:	6388                	ld	a0,0(a5)
    800006ee:	d6fff0ef          	jal	8000045c <printint>
      i += 1;
    800006f2:	0029849b          	addiw	s1,s3,2
    800006f6:	bd8d                	j	80000568 <printk+0x7a>
    800006f8:	fc5e                	sd	s7,56(sp)
      printptr(va_arg(ap, uint64));
    800006fa:	f8843783          	ld	a5,-120(s0)
    800006fe:	00878713          	addi	a4,a5,8
    80000702:	f8e43423          	sd	a4,-120(s0)
    80000706:	0007b983          	ld	s3,0(a5)
  consputc('0');
    8000070a:	03000513          	li	a0,48
    8000070e:	b5fff0ef          	jal	8000026c <consputc>
  consputc('x');
    80000712:	07800513          	li	a0,120
    80000716:	b57ff0ef          	jal	8000026c <consputc>
    8000071a:	4941                	li	s2,16
    consputc(digits[x >> (sizeof(uint64) * 8 - 4)]);
    8000071c:	00007b97          	auipc	s7,0x7
    80000720:	ff4b8b93          	addi	s7,s7,-12 # 80007710 <digits>
    80000724:	03c9d793          	srli	a5,s3,0x3c
    80000728:	97de                	add	a5,a5,s7
    8000072a:	0007c503          	lbu	a0,0(a5)
    8000072e:	b3fff0ef          	jal	8000026c <consputc>
  for (i = 0; i < (sizeof(uint64) * 2); i++, x <<= 4)
    80000732:	0992                	slli	s3,s3,0x4
    80000734:	397d                	addiw	s2,s2,-1
    80000736:	fe0917e3          	bnez	s2,80000724 <printk+0x236>
    8000073a:	7be2                	ld	s7,56(sp)
    8000073c:	b535                	j	80000568 <printk+0x7a>
      consputc(va_arg(ap, uint));
    8000073e:	f8843783          	ld	a5,-120(s0)
    80000742:	00878713          	addi	a4,a5,8
    80000746:	f8e43423          	sd	a4,-120(s0)
    8000074a:	4388                	lw	a0,0(a5)
    8000074c:	b21ff0ef          	jal	8000026c <consputc>
    80000750:	bd21                	j	80000568 <printk+0x7a>
      if ((s = va_arg(ap, char *)) == 0)
    80000752:	f8843783          	ld	a5,-120(s0)
    80000756:	00878713          	addi	a4,a5,8
    8000075a:	f8e43423          	sd	a4,-120(s0)
    8000075e:	0007b903          	ld	s2,0(a5)
    80000762:	00090d63          	beqz	s2,8000077c <printk+0x28e>
      for (; *s; s++)
    80000766:	00094503          	lbu	a0,0(s2)
    8000076a:	de050fe3          	beqz	a0,80000568 <printk+0x7a>
        consputc(*s);
    8000076e:	affff0ef          	jal	8000026c <consputc>
      for (; *s; s++)
    80000772:	0905                	addi	s2,s2,1
    80000774:	00094503          	lbu	a0,0(s2)
    80000778:	f97d                	bnez	a0,8000076e <printk+0x280>
    8000077a:	b3fd                	j	80000568 <printk+0x7a>
        s = "(null)";
    8000077c:	00007917          	auipc	s2,0x7
    80000780:	88c90913          	addi	s2,s2,-1908 # 80007008 <etext+0x8>
      for (; *s; s++)
    80000784:	02800513          	li	a0,40
    80000788:	b7dd                	j	8000076e <printk+0x280>
    8000078a:	74a6                	ld	s1,104(sp)
    8000078c:	7906                	ld	s2,96(sp)
    8000078e:	69e6                	ld	s3,88(sp)
    80000790:	6aa6                	ld	s5,72(sp)
    80000792:	6b06                	ld	s6,64(sp)
    80000794:	7c42                	ld	s8,48(sp)
    80000796:	7ca2                	ld	s9,40(sp)
    80000798:	7d02                	ld	s10,32(sp)
    8000079a:	6de2                	ld	s11,24(sp)
    8000079c:	a811                	j	800007b0 <printk+0x2c2>
    8000079e:	74a6                	ld	s1,104(sp)
    800007a0:	7906                	ld	s2,96(sp)
    800007a2:	69e6                	ld	s3,88(sp)
    800007a4:	6aa6                	ld	s5,72(sp)
    800007a6:	6b06                	ld	s6,64(sp)
    800007a8:	7c42                	ld	s8,48(sp)
    800007aa:	7ca2                	ld	s9,40(sp)
    800007ac:	7d02                	ld	s10,32(sp)
    800007ae:	6de2                	ld	s11,24(sp)
    }
  }
  va_end(ap);

  if (panicking == 0)
    800007b0:	0000a797          	auipc	a5,0xa
    800007b4:	9f47a783          	lw	a5,-1548(a5) # 8000a1a4 <panicking>
    800007b8:	c799                	beqz	a5,800007c6 <printk+0x2d8>
    release(&pr.lock);

  return 0;
}
    800007ba:	4501                	li	a0,0
    800007bc:	70e6                	ld	ra,120(sp)
    800007be:	7446                	ld	s0,112(sp)
    800007c0:	6a46                	ld	s4,80(sp)
    800007c2:	6129                	addi	sp,sp,192
    800007c4:	8082                	ret
    release(&pr.lock);
    800007c6:	00012517          	auipc	a0,0x12
    800007ca:	ab250513          	addi	a0,a0,-1358 # 80012278 <pr>
    800007ce:	472000ef          	jal	80000c40 <release>
  return 0;
    800007d2:	b7e5                	j	800007ba <printk+0x2cc>

00000000800007d4 <panic>:

void
panic(char *s)
{
    800007d4:	1101                	addi	sp,sp,-32
    800007d6:	ec06                	sd	ra,24(sp)
    800007d8:	e822                	sd	s0,16(sp)
    800007da:	e426                	sd	s1,8(sp)
    800007dc:	e04a                	sd	s2,0(sp)
    800007de:	1000                	addi	s0,sp,32
    800007e0:	84aa                	mv	s1,a0
  panicking = 1;
    800007e2:	4905                	li	s2,1
    800007e4:	0000a797          	auipc	a5,0xa
    800007e8:	9d27a023          	sw	s2,-1600(a5) # 8000a1a4 <panicking>
  printk("panic: ");
    800007ec:	00007517          	auipc	a0,0x7
    800007f0:	82c50513          	addi	a0,a0,-2004 # 80007018 <etext+0x18>
    800007f4:	cfbff0ef          	jal	800004ee <printk>
  printk("%s\n", s);
    800007f8:	85a6                	mv	a1,s1
    800007fa:	00007517          	auipc	a0,0x7
    800007fe:	82650513          	addi	a0,a0,-2010 # 80007020 <etext+0x20>
    80000802:	cedff0ef          	jal	800004ee <printk>
  panicked = 1; // freeze uart output from other CPUs
    80000806:	0000a797          	auipc	a5,0xa
    8000080a:	9927ad23          	sw	s2,-1638(a5) # 8000a1a0 <panicked>
  for (;;)
    8000080e:	a001                	j	8000080e <panic+0x3a>

0000000080000810 <printkinit>:
    ;
}

void
printkinit(void)
{
    80000810:	1141                	addi	sp,sp,-16
    80000812:	e406                	sd	ra,8(sp)
    80000814:	e022                	sd	s0,0(sp)
    80000816:	0800                	addi	s0,sp,16
  initlock(&pr.lock, "pr");
    80000818:	00007597          	auipc	a1,0x7
    8000081c:	81058593          	addi	a1,a1,-2032 # 80007028 <etext+0x28>
    80000820:	00012517          	auipc	a0,0x12
    80000824:	a5850513          	addi	a0,a0,-1448 # 80012278 <pr>
    80000828:	304000ef          	jal	80000b2c <initlock>
}
    8000082c:	60a2                	ld	ra,8(sp)
    8000082e:	6402                	ld	s0,0(sp)
    80000830:	0141                	addi	sp,sp,16
    80000832:	8082                	ret

0000000080000834 <uartinit>:
extern volatile int panicking; // from printk.c
extern volatile int panicked;  // from printk.c

void
uartinit(void)
{
    80000834:	1141                	addi	sp,sp,-16
    80000836:	e406                	sd	ra,8(sp)
    80000838:	e022                	sd	s0,0(sp)
    8000083a:	0800                	addi	s0,sp,16
  // disable interrupts.
  WriteReg(IER, 0x00);
    8000083c:	100007b7          	lui	a5,0x10000
    80000840:	000780a3          	sb	zero,1(a5) # 10000001 <_entry-0x6fffffff>

  // special mode to set baud rate.
  WriteReg(LCR, LCR_BAUD_LATCH);
    80000844:	10000737          	lui	a4,0x10000
    80000848:	f8000693          	li	a3,-128
    8000084c:	00d701a3          	sb	a3,3(a4) # 10000003 <_entry-0x6ffffffd>

  // LSB for baud rate of 38.4K.
  WriteReg(0, 0x03);
    80000850:	468d                	li	a3,3
    80000852:	10000637          	lui	a2,0x10000
    80000856:	00d60023          	sb	a3,0(a2) # 10000000 <_entry-0x70000000>

  // MSB for baud rate of 38.4K.
  WriteReg(1, 0x00);
    8000085a:	000780a3          	sb	zero,1(a5)

  // leave set-baud mode,
  // and set word length to 8 bits, no parity.
  WriteReg(LCR, LCR_EIGHT_BITS);
    8000085e:	00d701a3          	sb	a3,3(a4)

  // reset and enable FIFOs.
  WriteReg(FCR, FCR_FIFO_ENABLE | FCR_FIFO_CLEAR);
    80000862:	10000737          	lui	a4,0x10000
    80000866:	461d                	li	a2,7
    80000868:	00c70123          	sb	a2,2(a4) # 10000002 <_entry-0x6ffffffe>

  // enable transmit and receive interrupts.
  WriteReg(IER, IER_TX_ENABLE | IER_RX_ENABLE);
    8000086c:	00d780a3          	sb	a3,1(a5)

  initlock(&tx_lock, "uart");
    80000870:	00006597          	auipc	a1,0x6
    80000874:	7c058593          	addi	a1,a1,1984 # 80007030 <etext+0x30>
    80000878:	00012517          	auipc	a0,0x12
    8000087c:	a1850513          	addi	a0,a0,-1512 # 80012290 <tx_lock>
    80000880:	2ac000ef          	jal	80000b2c <initlock>
}
    80000884:	60a2                	ld	ra,8(sp)
    80000886:	6402                	ld	s0,0(sp)
    80000888:	0141                	addi	sp,sp,16
    8000088a:	8082                	ret

000000008000088c <uartwrite>:
// transmit buf[] to the uart. it blocks if the
// uart is busy, so it cannot be called from
// interrupts, only from write() system calls.
void
uartwrite(char buf[], int n)
{
    8000088c:	715d                	addi	sp,sp,-80
    8000088e:	e486                	sd	ra,72(sp)
    80000890:	e0a2                	sd	s0,64(sp)
    80000892:	fc26                	sd	s1,56(sp)
    80000894:	ec56                	sd	s5,24(sp)
    80000896:	0880                	addi	s0,sp,80
    80000898:	8aaa                	mv	s5,a0
    8000089a:	84ae                	mv	s1,a1
  acquire(&tx_lock);
    8000089c:	00012517          	auipc	a0,0x12
    800008a0:	9f450513          	addi	a0,a0,-1548 # 80012290 <tx_lock>
    800008a4:	308000ef          	jal	80000bac <acquire>

  int i = 0;
  while (i < n) {
    800008a8:	06905063          	blez	s1,80000908 <uartwrite+0x7c>
    800008ac:	f84a                	sd	s2,48(sp)
    800008ae:	f44e                	sd	s3,40(sp)
    800008b0:	f052                	sd	s4,32(sp)
    800008b2:	e85a                	sd	s6,16(sp)
    800008b4:	e45e                	sd	s7,8(sp)
    800008b6:	8a56                	mv	s4,s5
    800008b8:	9aa6                	add	s5,s5,s1
    while (tx_busy != 0) {
    800008ba:	0000a497          	auipc	s1,0xa
    800008be:	8f248493          	addi	s1,s1,-1806 # 8000a1ac <tx_busy>
      // wait for a UART transmit-complete interrupt
      // to set tx_busy to 0.
      sleep(&tx_chan, &tx_lock);
    800008c2:	00012997          	auipc	s3,0x12
    800008c6:	9ce98993          	addi	s3,s3,-1586 # 80012290 <tx_lock>
    800008ca:	0000a917          	auipc	s2,0xa
    800008ce:	8de90913          	addi	s2,s2,-1826 # 8000a1a8 <tx_chan>
    }

    WriteReg(THR, buf[i]);
    800008d2:	10000bb7          	lui	s7,0x10000
    i += 1;
    tx_busy = 1;
    800008d6:	4b05                	li	s6,1
    800008d8:	a005                	j	800008f8 <uartwrite+0x6c>
      sleep(&tx_chan, &tx_lock);
    800008da:	85ce                	mv	a1,s3
    800008dc:	854a                	mv	a0,s2
    800008de:	5d0010ef          	jal	80001eae <sleep>
    while (tx_busy != 0) {
    800008e2:	409c                	lw	a5,0(s1)
    800008e4:	fbfd                	bnez	a5,800008da <uartwrite+0x4e>
    WriteReg(THR, buf[i]);
    800008e6:	000a4783          	lbu	a5,0(s4)
    800008ea:	00fb8023          	sb	a5,0(s7) # 10000000 <_entry-0x70000000>
    tx_busy = 1;
    800008ee:	0164a023          	sw	s6,0(s1)
  while (i < n) {
    800008f2:	0a05                	addi	s4,s4,1
    800008f4:	015a0563          	beq	s4,s5,800008fe <uartwrite+0x72>
    while (tx_busy != 0) {
    800008f8:	409c                	lw	a5,0(s1)
    800008fa:	f3e5                	bnez	a5,800008da <uartwrite+0x4e>
    800008fc:	b7ed                	j	800008e6 <uartwrite+0x5a>
    800008fe:	7942                	ld	s2,48(sp)
    80000900:	79a2                	ld	s3,40(sp)
    80000902:	7a02                	ld	s4,32(sp)
    80000904:	6b42                	ld	s6,16(sp)
    80000906:	6ba2                	ld	s7,8(sp)
  }

  release(&tx_lock);
    80000908:	00012517          	auipc	a0,0x12
    8000090c:	98850513          	addi	a0,a0,-1656 # 80012290 <tx_lock>
    80000910:	330000ef          	jal	80000c40 <release>
}
    80000914:	60a6                	ld	ra,72(sp)
    80000916:	6406                	ld	s0,64(sp)
    80000918:	74e2                	ld	s1,56(sp)
    8000091a:	6ae2                	ld	s5,24(sp)
    8000091c:	6161                	addi	sp,sp,80
    8000091e:	8082                	ret

0000000080000920 <uartputc_sync>:
// interrupts, for use by kernel printk() and
// to echo characters. it spins waiting for the uart's
// output register to be empty.
void
uartputc_sync(int c)
{
    80000920:	1101                	addi	sp,sp,-32
    80000922:	ec06                	sd	ra,24(sp)
    80000924:	e822                	sd	s0,16(sp)
    80000926:	e426                	sd	s1,8(sp)
    80000928:	1000                	addi	s0,sp,32
    8000092a:	84aa                	mv	s1,a0
  if (panicking == 0)
    8000092c:	0000a797          	auipc	a5,0xa
    80000930:	8787a783          	lw	a5,-1928(a5) # 8000a1a4 <panicking>
    80000934:	cf95                	beqz	a5,80000970 <uartputc_sync+0x50>
    push_off();

  if (panicked) {
    80000936:	0000a797          	auipc	a5,0xa
    8000093a:	86a7a783          	lw	a5,-1942(a5) # 8000a1a0 <panicked>
    8000093e:	ef85                	bnez	a5,80000976 <uartputc_sync+0x56>
    for (;;)
      ;
  }

  // wait for UART to set Transmit Holding Empty in LSR.
  while ((ReadReg(LSR) & LSR_TX_IDLE) == 0)
    80000940:	10000737          	lui	a4,0x10000
    80000944:	0715                	addi	a4,a4,5 # 10000005 <_entry-0x6ffffffb>
    80000946:	00074783          	lbu	a5,0(a4)
    8000094a:	0207f793          	andi	a5,a5,32
    8000094e:	dfe5                	beqz	a5,80000946 <uartputc_sync+0x26>
    ;
  WriteReg(THR, c);
    80000950:	0ff4f513          	zext.b	a0,s1
    80000954:	100007b7          	lui	a5,0x10000
    80000958:	00a78023          	sb	a0,0(a5) # 10000000 <_entry-0x70000000>

  if (panicking == 0)
    8000095c:	0000a797          	auipc	a5,0xa
    80000960:	8487a783          	lw	a5,-1976(a5) # 8000a1a4 <panicking>
    80000964:	cb91                	beqz	a5,80000978 <uartputc_sync+0x58>
    pop_off();
}
    80000966:	60e2                	ld	ra,24(sp)
    80000968:	6442                	ld	s0,16(sp)
    8000096a:	64a2                	ld	s1,8(sp)
    8000096c:	6105                	addi	sp,sp,32
    8000096e:	8082                	ret
    push_off();
    80000970:	1fc000ef          	jal	80000b6c <push_off>
    80000974:	b7c9                	j	80000936 <uartputc_sync+0x16>
    for (;;)
    80000976:	a001                	j	80000976 <uartputc_sync+0x56>
    pop_off();
    80000978:	274000ef          	jal	80000bec <pop_off>
}
    8000097c:	b7ed                	j	80000966 <uartputc_sync+0x46>

000000008000097e <uartintr>:
// handle a uart interrupt, raised because input has
// arrived, or the uart is ready for more output, or
// both. called from devintr().
void
uartintr(void)
{
    8000097e:	1101                	addi	sp,sp,-32
    80000980:	ec06                	sd	ra,24(sp)
    80000982:	e822                	sd	s0,16(sp)
    80000984:	e426                	sd	s1,8(sp)
    80000986:	e04a                	sd	s2,0(sp)
    80000988:	1000                	addi	s0,sp,32
  ReadReg(ISR); // acknowledge the interrupt
    8000098a:	100007b7          	lui	a5,0x10000
    8000098e:	0789                	addi	a5,a5,2 # 10000002 <_entry-0x6ffffffe>
    80000990:	0007c783          	lbu	a5,0(a5)

  acquire(&tx_lock);
    80000994:	00012517          	auipc	a0,0x12
    80000998:	8fc50513          	addi	a0,a0,-1796 # 80012290 <tx_lock>
    8000099c:	210000ef          	jal	80000bac <acquire>
  if (ReadReg(LSR) & LSR_TX_IDLE) {
    800009a0:	100007b7          	lui	a5,0x10000
    800009a4:	0795                	addi	a5,a5,5 # 10000005 <_entry-0x6ffffffb>
    800009a6:	0007c783          	lbu	a5,0(a5)
    800009aa:	0207f793          	andi	a5,a5,32
    800009ae:	e78d                	bnez	a5,800009d8 <uartintr+0x5a>
    // UART finished transmitting; wake up sending thread.
    tx_busy = 0;
    wakeup(&tx_chan);
  }
  release(&tx_lock);
    800009b0:	00012517          	auipc	a0,0x12
    800009b4:	8e050513          	addi	a0,a0,-1824 # 80012290 <tx_lock>
    800009b8:	288000ef          	jal	80000c40 <release>
  if (ReadReg(LSR) & LSR_RX_READY) {
    800009bc:	100004b7          	lui	s1,0x10000
    800009c0:	0495                	addi	s1,s1,5 # 10000005 <_entry-0x6ffffffb>
    return ReadReg(RHR);
    800009c2:	10000937          	lui	s2,0x10000
  if (ReadReg(LSR) & LSR_RX_READY) {
    800009c6:	0004c783          	lbu	a5,0(s1)
    800009ca:	8b85                	andi	a5,a5,1
    800009cc:	c38d                	beqz	a5,800009ee <uartintr+0x70>
    return ReadReg(RHR);
    800009ce:	00094503          	lbu	a0,0(s2) # 10000000 <_entry-0x70000000>
  // read and process incoming characters, if any.
  while (1) {
    int c = uartgetc();
    if (c == -1)
      break;
    consoleintr(c);
    800009d2:	8cdff0ef          	jal	8000029e <consoleintr>
  while (1) {
    800009d6:	bfc5                	j	800009c6 <uartintr+0x48>
    tx_busy = 0;
    800009d8:	00009797          	auipc	a5,0x9
    800009dc:	7c07aa23          	sw	zero,2004(a5) # 8000a1ac <tx_busy>
    wakeup(&tx_chan);
    800009e0:	00009517          	auipc	a0,0x9
    800009e4:	7c850513          	addi	a0,a0,1992 # 8000a1a8 <tx_chan>
    800009e8:	512010ef          	jal	80001efa <wakeup>
    800009ec:	b7d1                	j	800009b0 <uartintr+0x32>
  }
}
    800009ee:	60e2                	ld	ra,24(sp)
    800009f0:	6442                	ld	s0,16(sp)
    800009f2:	64a2                	ld	s1,8(sp)
    800009f4:	6902                	ld	s2,0(sp)
    800009f6:	6105                	addi	sp,sp,32
    800009f8:	8082                	ret

00000000800009fa <kfree>:
// which normally should have been returned by a
// call to kalloc().  (The exception is when
// initializing the allocator; see kinit above.)
void
kfree(void *pa)
{
    800009fa:	1101                	addi	sp,sp,-32
    800009fc:	ec06                	sd	ra,24(sp)
    800009fe:	e822                	sd	s0,16(sp)
    80000a00:	e426                	sd	s1,8(sp)
    80000a02:	e04a                	sd	s2,0(sp)
    80000a04:	1000                	addi	s0,sp,32
  struct run *r;

  if (((uint64)pa % PGSIZE) != 0 || (char *)pa < end || (uint64)pa >= PHYSTOP)
    80000a06:	03451793          	slli	a5,a0,0x34
    80000a0a:	e7a9                	bnez	a5,80000a54 <kfree+0x5a>
    80000a0c:	84aa                	mv	s1,a0
    80000a0e:	00023797          	auipc	a5,0x23
    80000a12:	aca78793          	addi	a5,a5,-1334 # 800234d8 <end>
    80000a16:	02f56f63          	bltu	a0,a5,80000a54 <kfree+0x5a>
    80000a1a:	47c5                	li	a5,17
    80000a1c:	07ee                	slli	a5,a5,0x1b
    80000a1e:	02f57b63          	bgeu	a0,a5,80000a54 <kfree+0x5a>
    panic("kfree");

  // Fill with junk to catch dangling refs.
  memset(pa, 1, PGSIZE);
    80000a22:	6605                	lui	a2,0x1
    80000a24:	4585                	li	a1,1
    80000a26:	252000ef          	jal	80000c78 <memset>

  r = (struct run *)pa;

  acquire(&kmem.lock);
    80000a2a:	00012917          	auipc	s2,0x12
    80000a2e:	87e90913          	addi	s2,s2,-1922 # 800122a8 <kmem>
    80000a32:	854a                	mv	a0,s2
    80000a34:	178000ef          	jal	80000bac <acquire>
  r->next = kmem.freelist;
    80000a38:	01893783          	ld	a5,24(s2)
    80000a3c:	e09c                	sd	a5,0(s1)
  kmem.freelist = r;
    80000a3e:	00993c23          	sd	s1,24(s2)
  release(&kmem.lock);
    80000a42:	854a                	mv	a0,s2
    80000a44:	1fc000ef          	jal	80000c40 <release>
}
    80000a48:	60e2                	ld	ra,24(sp)
    80000a4a:	6442                	ld	s0,16(sp)
    80000a4c:	64a2                	ld	s1,8(sp)
    80000a4e:	6902                	ld	s2,0(sp)
    80000a50:	6105                	addi	sp,sp,32
    80000a52:	8082                	ret
    panic("kfree");
    80000a54:	00006517          	auipc	a0,0x6
    80000a58:	5e450513          	addi	a0,a0,1508 # 80007038 <etext+0x38>
    80000a5c:	d79ff0ef          	jal	800007d4 <panic>

0000000080000a60 <freerange>:
{
    80000a60:	7179                	addi	sp,sp,-48
    80000a62:	f406                	sd	ra,40(sp)
    80000a64:	f022                	sd	s0,32(sp)
    80000a66:	ec26                	sd	s1,24(sp)
    80000a68:	1800                	addi	s0,sp,48
  p = (char *)PGROUNDUP((uint64)pa_start);
    80000a6a:	6785                	lui	a5,0x1
    80000a6c:	fff78713          	addi	a4,a5,-1 # fff <_entry-0x7ffff001>
    80000a70:	00e504b3          	add	s1,a0,a4
    80000a74:	777d                	lui	a4,0xfffff
    80000a76:	8cf9                	and	s1,s1,a4
  for (; p + PGSIZE <= (char *)pa_end; p += PGSIZE)
    80000a78:	94be                	add	s1,s1,a5
    80000a7a:	0295e263          	bltu	a1,s1,80000a9e <freerange+0x3e>
    80000a7e:	e84a                	sd	s2,16(sp)
    80000a80:	e44e                	sd	s3,8(sp)
    80000a82:	e052                	sd	s4,0(sp)
    80000a84:	892e                	mv	s2,a1
    kfree(p);
    80000a86:	7a7d                	lui	s4,0xfffff
  for (; p + PGSIZE <= (char *)pa_end; p += PGSIZE)
    80000a88:	6985                	lui	s3,0x1
    kfree(p);
    80000a8a:	01448533          	add	a0,s1,s4
    80000a8e:	f6dff0ef          	jal	800009fa <kfree>
  for (; p + PGSIZE <= (char *)pa_end; p += PGSIZE)
    80000a92:	94ce                	add	s1,s1,s3
    80000a94:	fe997be3          	bgeu	s2,s1,80000a8a <freerange+0x2a>
    80000a98:	6942                	ld	s2,16(sp)
    80000a9a:	69a2                	ld	s3,8(sp)
    80000a9c:	6a02                	ld	s4,0(sp)
}
    80000a9e:	70a2                	ld	ra,40(sp)
    80000aa0:	7402                	ld	s0,32(sp)
    80000aa2:	64e2                	ld	s1,24(sp)
    80000aa4:	6145                	addi	sp,sp,48
    80000aa6:	8082                	ret

0000000080000aa8 <kinit>:
{
    80000aa8:	1141                	addi	sp,sp,-16
    80000aaa:	e406                	sd	ra,8(sp)
    80000aac:	e022                	sd	s0,0(sp)
    80000aae:	0800                	addi	s0,sp,16
  initlock(&kmem.lock, "kmem");
    80000ab0:	00006597          	auipc	a1,0x6
    80000ab4:	59058593          	addi	a1,a1,1424 # 80007040 <etext+0x40>
    80000ab8:	00011517          	auipc	a0,0x11
    80000abc:	7f050513          	addi	a0,a0,2032 # 800122a8 <kmem>
    80000ac0:	06c000ef          	jal	80000b2c <initlock>
  freerange(end, (void *)PHYSTOP);
    80000ac4:	45c5                	li	a1,17
    80000ac6:	05ee                	slli	a1,a1,0x1b
    80000ac8:	00023517          	auipc	a0,0x23
    80000acc:	a1050513          	addi	a0,a0,-1520 # 800234d8 <end>
    80000ad0:	f91ff0ef          	jal	80000a60 <freerange>
}
    80000ad4:	60a2                	ld	ra,8(sp)
    80000ad6:	6402                	ld	s0,0(sp)
    80000ad8:	0141                	addi	sp,sp,16
    80000ada:	8082                	ret

0000000080000adc <kalloc>:
// Allocate one 4096-byte page of physical memory.
// Returns a pointer that the kernel can use.
// Returns 0 if the memory cannot be allocated.
void *
kalloc(void)
{
    80000adc:	1101                	addi	sp,sp,-32
    80000ade:	ec06                	sd	ra,24(sp)
    80000ae0:	e822                	sd	s0,16(sp)
    80000ae2:	e426                	sd	s1,8(sp)
    80000ae4:	1000                	addi	s0,sp,32
  struct run *r;

  acquire(&kmem.lock);
    80000ae6:	00011497          	auipc	s1,0x11
    80000aea:	7c248493          	addi	s1,s1,1986 # 800122a8 <kmem>
    80000aee:	8526                	mv	a0,s1
    80000af0:	0bc000ef          	jal	80000bac <acquire>
  r = kmem.freelist;
    80000af4:	6c84                	ld	s1,24(s1)
  if (r)
    80000af6:	c485                	beqz	s1,80000b1e <kalloc+0x42>
    kmem.freelist = r->next;
    80000af8:	609c                	ld	a5,0(s1)
    80000afa:	00011517          	auipc	a0,0x11
    80000afe:	7ae50513          	addi	a0,a0,1966 # 800122a8 <kmem>
    80000b02:	ed1c                	sd	a5,24(a0)
  release(&kmem.lock);
    80000b04:	13c000ef          	jal	80000c40 <release>

  if (r)
    memset((char *)r, 5, PGSIZE); // fill with junk
    80000b08:	6605                	lui	a2,0x1
    80000b0a:	4595                	li	a1,5
    80000b0c:	8526                	mv	a0,s1
    80000b0e:	16a000ef          	jal	80000c78 <memset>
  return (void *)r;
}
    80000b12:	8526                	mv	a0,s1
    80000b14:	60e2                	ld	ra,24(sp)
    80000b16:	6442                	ld	s0,16(sp)
    80000b18:	64a2                	ld	s1,8(sp)
    80000b1a:	6105                	addi	sp,sp,32
    80000b1c:	8082                	ret
  release(&kmem.lock);
    80000b1e:	00011517          	auipc	a0,0x11
    80000b22:	78a50513          	addi	a0,a0,1930 # 800122a8 <kmem>
    80000b26:	11a000ef          	jal	80000c40 <release>
  if (r)
    80000b2a:	b7e5                	j	80000b12 <kalloc+0x36>

0000000080000b2c <initlock>:
#include "proc.h"
#include "defs.h"

void
initlock(struct spinlock *lk, char *name)
{
    80000b2c:	1141                	addi	sp,sp,-16
    80000b2e:	e422                	sd	s0,8(sp)
    80000b30:	0800                	addi	s0,sp,16
  lk->name = name;
    80000b32:	e50c                	sd	a1,8(a0)
  lk->locked = 0;
    80000b34:	00052023          	sw	zero,0(a0)
  lk->cpu = 0;
    80000b38:	00053823          	sd	zero,16(a0)
}
    80000b3c:	6422                	ld	s0,8(sp)
    80000b3e:	0141                	addi	sp,sp,16
    80000b40:	8082                	ret

0000000080000b42 <holding>:
// Interrupts must be off.
int
holding(struct spinlock *lk)
{
  int r;
  r = (lk->locked && lk->cpu == mycpu());
    80000b42:	411c                	lw	a5,0(a0)
    80000b44:	e399                	bnez	a5,80000b4a <holding+0x8>
    80000b46:	4501                	li	a0,0
  return r;
}
    80000b48:	8082                	ret
{
    80000b4a:	1101                	addi	sp,sp,-32
    80000b4c:	ec06                	sd	ra,24(sp)
    80000b4e:	e822                	sd	s0,16(sp)
    80000b50:	e426                	sd	s1,8(sp)
    80000b52:	1000                	addi	s0,sp,32
  r = (lk->locked && lk->cpu == mycpu());
    80000b54:	6904                	ld	s1,16(a0)
    80000b56:	533000ef          	jal	80001888 <mycpu>
    80000b5a:	40a48533          	sub	a0,s1,a0
    80000b5e:	00153513          	seqz	a0,a0
}
    80000b62:	60e2                	ld	ra,24(sp)
    80000b64:	6442                	ld	s0,16(sp)
    80000b66:	64a2                	ld	s1,8(sp)
    80000b68:	6105                	addi	sp,sp,32
    80000b6a:	8082                	ret

0000000080000b6c <push_off>:
// it takes two pop_off()s to undo two push_off()s.  Also, if interrupts
// are initially off, then push_off, pop_off leaves them off.

void
push_off(void)
{
    80000b6c:	1101                	addi	sp,sp,-32
    80000b6e:	ec06                	sd	ra,24(sp)
    80000b70:	e822                	sd	s0,16(sp)
    80000b72:	e426                	sd	s1,8(sp)
    80000b74:	1000                	addi	s0,sp,32
  asm volatile("csrr %0, sstatus" : "=r"(x));
    80000b76:	100024f3          	csrr	s1,sstatus
    80000b7a:	100027f3          	csrr	a5,sstatus
  w_sstatus(r_sstatus() & ~SSTATUS_SIE);
    80000b7e:	9bf5                	andi	a5,a5,-3
  asm volatile("csrw sstatus, %0" : : "r"(x));
    80000b80:	10079073          	csrw	sstatus,a5

  // disable interrupts to prevent an involuntary context
  // switch while using mycpu().
  intr_off();

  if (mycpu()->noff == 0)
    80000b84:	505000ef          	jal	80001888 <mycpu>
    80000b88:	5d3c                	lw	a5,120(a0)
    80000b8a:	cb99                	beqz	a5,80000ba0 <push_off+0x34>
    mycpu()->intena = old;
  mycpu()->noff += 1;
    80000b8c:	4fd000ef          	jal	80001888 <mycpu>
    80000b90:	5d3c                	lw	a5,120(a0)
    80000b92:	2785                	addiw	a5,a5,1
    80000b94:	dd3c                	sw	a5,120(a0)
}
    80000b96:	60e2                	ld	ra,24(sp)
    80000b98:	6442                	ld	s0,16(sp)
    80000b9a:	64a2                	ld	s1,8(sp)
    80000b9c:	6105                	addi	sp,sp,32
    80000b9e:	8082                	ret
    mycpu()->intena = old;
    80000ba0:	4e9000ef          	jal	80001888 <mycpu>
  return (x & SSTATUS_SIE) != 0;
    80000ba4:	8085                	srli	s1,s1,0x1
    80000ba6:	8885                	andi	s1,s1,1
    80000ba8:	dd64                	sw	s1,124(a0)
    80000baa:	b7cd                	j	80000b8c <push_off+0x20>

0000000080000bac <acquire>:
{
    80000bac:	1101                	addi	sp,sp,-32
    80000bae:	ec06                	sd	ra,24(sp)
    80000bb0:	e822                	sd	s0,16(sp)
    80000bb2:	e426                	sd	s1,8(sp)
    80000bb4:	1000                	addi	s0,sp,32
    80000bb6:	84aa                	mv	s1,a0
  push_off(); // disable interrupts to avoid deadlock.
    80000bb8:	fb5ff0ef          	jal	80000b6c <push_off>
  if (holding(lk))
    80000bbc:	8526                	mv	a0,s1
    80000bbe:	f85ff0ef          	jal	80000b42 <holding>
  while (__atomic_exchange_n(&lk->locked, 1, __ATOMIC_ACQUIRE) != 0)
    80000bc2:	4705                	li	a4,1
  if (holding(lk))
    80000bc4:	ed11                	bnez	a0,80000be0 <acquire+0x34>
  while (__atomic_exchange_n(&lk->locked, 1, __ATOMIC_ACQUIRE) != 0)
    80000bc6:	87ba                	mv	a5,a4
    80000bc8:	0cf4a7af          	amoswap.w.aq	a5,a5,(s1)
    80000bcc:	2781                	sext.w	a5,a5
    80000bce:	ffe5                	bnez	a5,80000bc6 <acquire+0x1a>
  lk->cpu = mycpu();
    80000bd0:	4b9000ef          	jal	80001888 <mycpu>
    80000bd4:	e888                	sd	a0,16(s1)
}
    80000bd6:	60e2                	ld	ra,24(sp)
    80000bd8:	6442                	ld	s0,16(sp)
    80000bda:	64a2                	ld	s1,8(sp)
    80000bdc:	6105                	addi	sp,sp,32
    80000bde:	8082                	ret
    panic("acquire");
    80000be0:	00006517          	auipc	a0,0x6
    80000be4:	46850513          	addi	a0,a0,1128 # 80007048 <etext+0x48>
    80000be8:	bedff0ef          	jal	800007d4 <panic>

0000000080000bec <pop_off>:

void
pop_off(void)
{
    80000bec:	1141                	addi	sp,sp,-16
    80000bee:	e406                	sd	ra,8(sp)
    80000bf0:	e022                	sd	s0,0(sp)
    80000bf2:	0800                	addi	s0,sp,16
  struct cpu *c = mycpu();
    80000bf4:	495000ef          	jal	80001888 <mycpu>
  asm volatile("csrr %0, sstatus" : "=r"(x));
    80000bf8:	100027f3          	csrr	a5,sstatus
  return (x & SSTATUS_SIE) != 0;
    80000bfc:	8b89                	andi	a5,a5,2
  if (intr_get())
    80000bfe:	e78d                	bnez	a5,80000c28 <pop_off+0x3c>
    panic("pop_off - interruptible");
  if (c->noff < 1)
    80000c00:	5d3c                	lw	a5,120(a0)
    80000c02:	02f05963          	blez	a5,80000c34 <pop_off+0x48>
    panic("pop_off");
  c->noff -= 1;
    80000c06:	37fd                	addiw	a5,a5,-1
    80000c08:	0007871b          	sext.w	a4,a5
    80000c0c:	dd3c                	sw	a5,120(a0)
  if (c->noff == 0 && c->intena)
    80000c0e:	eb09                	bnez	a4,80000c20 <pop_off+0x34>
    80000c10:	5d7c                	lw	a5,124(a0)
    80000c12:	c799                	beqz	a5,80000c20 <pop_off+0x34>
  asm volatile("csrr %0, sstatus" : "=r"(x));
    80000c14:	100027f3          	csrr	a5,sstatus
  w_sstatus(r_sstatus() | SSTATUS_SIE);
    80000c18:	0027e793          	ori	a5,a5,2
  asm volatile("csrw sstatus, %0" : : "r"(x));
    80000c1c:	10079073          	csrw	sstatus,a5
    intr_on();
}
    80000c20:	60a2                	ld	ra,8(sp)
    80000c22:	6402                	ld	s0,0(sp)
    80000c24:	0141                	addi	sp,sp,16
    80000c26:	8082                	ret
    panic("pop_off - interruptible");
    80000c28:	00006517          	auipc	a0,0x6
    80000c2c:	42850513          	addi	a0,a0,1064 # 80007050 <etext+0x50>
    80000c30:	ba5ff0ef          	jal	800007d4 <panic>
    panic("pop_off");
    80000c34:	00006517          	auipc	a0,0x6
    80000c38:	43450513          	addi	a0,a0,1076 # 80007068 <etext+0x68>
    80000c3c:	b99ff0ef          	jal	800007d4 <panic>

0000000080000c40 <release>:
{
    80000c40:	1101                	addi	sp,sp,-32
    80000c42:	ec06                	sd	ra,24(sp)
    80000c44:	e822                	sd	s0,16(sp)
    80000c46:	e426                	sd	s1,8(sp)
    80000c48:	1000                	addi	s0,sp,32
    80000c4a:	84aa                	mv	s1,a0
  if (!holding(lk))
    80000c4c:	ef7ff0ef          	jal	80000b42 <holding>
    80000c50:	cd11                	beqz	a0,80000c6c <release+0x2c>
  lk->cpu = 0;
    80000c52:	0004b823          	sd	zero,16(s1)
  __atomic_store_n(&lk->locked, 0, __ATOMIC_RELEASE);
    80000c56:	0310000f          	fence	rw,w
    80000c5a:	0004a023          	sw	zero,0(s1)
  pop_off();
    80000c5e:	f8fff0ef          	jal	80000bec <pop_off>
}
    80000c62:	60e2                	ld	ra,24(sp)
    80000c64:	6442                	ld	s0,16(sp)
    80000c66:	64a2                	ld	s1,8(sp)
    80000c68:	6105                	addi	sp,sp,32
    80000c6a:	8082                	ret
    panic("release");
    80000c6c:	00006517          	auipc	a0,0x6
    80000c70:	40450513          	addi	a0,a0,1028 # 80007070 <etext+0x70>
    80000c74:	b61ff0ef          	jal	800007d4 <panic>

0000000080000c78 <memset>:
#include "types.h"

void *
memset(void *dst, int c, uint n)
{
    80000c78:	1141                	addi	sp,sp,-16
    80000c7a:	e422                	sd	s0,8(sp)
    80000c7c:	0800                	addi	s0,sp,16
  char *cdst = (char *)dst;
  int i;
  for (i = 0; i < n; i++) {
    80000c7e:	ca19                	beqz	a2,80000c94 <memset+0x1c>
    80000c80:	87aa                	mv	a5,a0
    80000c82:	1602                	slli	a2,a2,0x20
    80000c84:	9201                	srli	a2,a2,0x20
    80000c86:	00a60733          	add	a4,a2,a0
    cdst[i] = c;
    80000c8a:	00b78023          	sb	a1,0(a5)
  for (i = 0; i < n; i++) {
    80000c8e:	0785                	addi	a5,a5,1
    80000c90:	fee79de3          	bne	a5,a4,80000c8a <memset+0x12>
  }
  return dst;
}
    80000c94:	6422                	ld	s0,8(sp)
    80000c96:	0141                	addi	sp,sp,16
    80000c98:	8082                	ret

0000000080000c9a <memcmp>:

int
memcmp(const void *v1, const void *v2, uint n)
{
    80000c9a:	1141                	addi	sp,sp,-16
    80000c9c:	e422                	sd	s0,8(sp)
    80000c9e:	0800                	addi	s0,sp,16
  const uchar *s1, *s2;

  s1 = v1;
  s2 = v2;
  while (n-- > 0) {
    80000ca0:	ca05                	beqz	a2,80000cd0 <memcmp+0x36>
    80000ca2:	fff6069b          	addiw	a3,a2,-1 # fff <_entry-0x7ffff001>
    80000ca6:	1682                	slli	a3,a3,0x20
    80000ca8:	9281                	srli	a3,a3,0x20
    80000caa:	0685                	addi	a3,a3,1
    80000cac:	96aa                	add	a3,a3,a0
    if (*s1 != *s2)
    80000cae:	00054783          	lbu	a5,0(a0)
    80000cb2:	0005c703          	lbu	a4,0(a1)
    80000cb6:	00e79863          	bne	a5,a4,80000cc6 <memcmp+0x2c>
      return *s1 - *s2;
    s1++, s2++;
    80000cba:	0505                	addi	a0,a0,1
    80000cbc:	0585                	addi	a1,a1,1
  while (n-- > 0) {
    80000cbe:	fed518e3          	bne	a0,a3,80000cae <memcmp+0x14>
  }

  return 0;
    80000cc2:	4501                	li	a0,0
    80000cc4:	a019                	j	80000cca <memcmp+0x30>
      return *s1 - *s2;
    80000cc6:	40e7853b          	subw	a0,a5,a4
}
    80000cca:	6422                	ld	s0,8(sp)
    80000ccc:	0141                	addi	sp,sp,16
    80000cce:	8082                	ret
  return 0;
    80000cd0:	4501                	li	a0,0
    80000cd2:	bfe5                	j	80000cca <memcmp+0x30>

0000000080000cd4 <memmove>:

void *
memmove(void *dst, const void *src, uint n)
{
    80000cd4:	1141                	addi	sp,sp,-16
    80000cd6:	e422                	sd	s0,8(sp)
    80000cd8:	0800                	addi	s0,sp,16
  const char *s;
  char *d;

  if (n == 0)
    80000cda:	c205                	beqz	a2,80000cfa <memmove+0x26>
    return dst;

  s = src;
  d = dst;
  if (s < d && s + n > d) {
    80000cdc:	02a5e263          	bltu	a1,a0,80000d00 <memmove+0x2c>
    s += n;
    d += n;
    while (n-- > 0)
      *--d = *--s;
  } else
    while (n-- > 0)
    80000ce0:	1602                	slli	a2,a2,0x20
    80000ce2:	9201                	srli	a2,a2,0x20
    80000ce4:	00c587b3          	add	a5,a1,a2
{
    80000ce8:	872a                	mv	a4,a0
      *d++ = *s++;
    80000cea:	0585                	addi	a1,a1,1
    80000cec:	0705                	addi	a4,a4,1 # fffffffffffff001 <end+0xffffffff7ffdbb29>
    80000cee:	fff5c683          	lbu	a3,-1(a1)
    80000cf2:	fed70fa3          	sb	a3,-1(a4)
    while (n-- > 0)
    80000cf6:	feb79ae3          	bne	a5,a1,80000cea <memmove+0x16>

  return dst;
}
    80000cfa:	6422                	ld	s0,8(sp)
    80000cfc:	0141                	addi	sp,sp,16
    80000cfe:	8082                	ret
  if (s < d && s + n > d) {
    80000d00:	02061693          	slli	a3,a2,0x20
    80000d04:	9281                	srli	a3,a3,0x20
    80000d06:	00d58733          	add	a4,a1,a3
    80000d0a:	fce57be3          	bgeu	a0,a4,80000ce0 <memmove+0xc>
    d += n;
    80000d0e:	96aa                	add	a3,a3,a0
    while (n-- > 0)
    80000d10:	fff6079b          	addiw	a5,a2,-1
    80000d14:	1782                	slli	a5,a5,0x20
    80000d16:	9381                	srli	a5,a5,0x20
    80000d18:	fff7c793          	not	a5,a5
    80000d1c:	97ba                	add	a5,a5,a4
      *--d = *--s;
    80000d1e:	177d                	addi	a4,a4,-1
    80000d20:	16fd                	addi	a3,a3,-1
    80000d22:	00074603          	lbu	a2,0(a4)
    80000d26:	00c68023          	sb	a2,0(a3)
    while (n-- > 0)
    80000d2a:	fef71ae3          	bne	a4,a5,80000d1e <memmove+0x4a>
    80000d2e:	b7f1                	j	80000cfa <memmove+0x26>

0000000080000d30 <memcpy>:

// memcpy exists to placate GCC.  Use memmove.
void *
memcpy(void *dst, const void *src, uint n)
{
    80000d30:	1141                	addi	sp,sp,-16
    80000d32:	e406                	sd	ra,8(sp)
    80000d34:	e022                	sd	s0,0(sp)
    80000d36:	0800                	addi	s0,sp,16
  return memmove(dst, src, n);
    80000d38:	f9dff0ef          	jal	80000cd4 <memmove>
}
    80000d3c:	60a2                	ld	ra,8(sp)
    80000d3e:	6402                	ld	s0,0(sp)
    80000d40:	0141                	addi	sp,sp,16
    80000d42:	8082                	ret

0000000080000d44 <strncmp>:

int
strncmp(const char *p, const char *q, uint n)
{
    80000d44:	1141                	addi	sp,sp,-16
    80000d46:	e422                	sd	s0,8(sp)
    80000d48:	0800                	addi	s0,sp,16
  while (n > 0 && *p && *p == *q)
    80000d4a:	ce11                	beqz	a2,80000d66 <strncmp+0x22>
    80000d4c:	00054783          	lbu	a5,0(a0)
    80000d50:	cf89                	beqz	a5,80000d6a <strncmp+0x26>
    80000d52:	0005c703          	lbu	a4,0(a1)
    80000d56:	00f71a63          	bne	a4,a5,80000d6a <strncmp+0x26>
    n--, p++, q++;
    80000d5a:	367d                	addiw	a2,a2,-1
    80000d5c:	0505                	addi	a0,a0,1
    80000d5e:	0585                	addi	a1,a1,1
  while (n > 0 && *p && *p == *q)
    80000d60:	f675                	bnez	a2,80000d4c <strncmp+0x8>
  if (n == 0)
    return 0;
    80000d62:	4501                	li	a0,0
    80000d64:	a801                	j	80000d74 <strncmp+0x30>
    80000d66:	4501                	li	a0,0
    80000d68:	a031                	j	80000d74 <strncmp+0x30>
  return (uchar)*p - (uchar)*q;
    80000d6a:	00054503          	lbu	a0,0(a0)
    80000d6e:	0005c783          	lbu	a5,0(a1)
    80000d72:	9d1d                	subw	a0,a0,a5
}
    80000d74:	6422                	ld	s0,8(sp)
    80000d76:	0141                	addi	sp,sp,16
    80000d78:	8082                	ret

0000000080000d7a <strncpy>:

char *
strncpy(char *s, const char *t, int n)
{
    80000d7a:	1141                	addi	sp,sp,-16
    80000d7c:	e422                	sd	s0,8(sp)
    80000d7e:	0800                	addi	s0,sp,16
  char *os;

  os = s;
  while (n-- > 0 && (*s++ = *t++) != 0)
    80000d80:	87aa                	mv	a5,a0
    80000d82:	86b2                	mv	a3,a2
    80000d84:	367d                	addiw	a2,a2,-1
    80000d86:	02d05563          	blez	a3,80000db0 <strncpy+0x36>
    80000d8a:	0785                	addi	a5,a5,1
    80000d8c:	0005c703          	lbu	a4,0(a1)
    80000d90:	fee78fa3          	sb	a4,-1(a5)
    80000d94:	0585                	addi	a1,a1,1
    80000d96:	f775                	bnez	a4,80000d82 <strncpy+0x8>
    ;
  while (n-- > 0)
    80000d98:	873e                	mv	a4,a5
    80000d9a:	9fb5                	addw	a5,a5,a3
    80000d9c:	37fd                	addiw	a5,a5,-1
    80000d9e:	00c05963          	blez	a2,80000db0 <strncpy+0x36>
    *s++ = 0;
    80000da2:	0705                	addi	a4,a4,1
    80000da4:	fe070fa3          	sb	zero,-1(a4)
  while (n-- > 0)
    80000da8:	40e786bb          	subw	a3,a5,a4
    80000dac:	fed04be3          	bgtz	a3,80000da2 <strncpy+0x28>
  return os;
}
    80000db0:	6422                	ld	s0,8(sp)
    80000db2:	0141                	addi	sp,sp,16
    80000db4:	8082                	ret

0000000080000db6 <safestrcpy>:

// Like strncpy but guaranteed to NUL-terminate.
char *
safestrcpy(char *s, const char *t, int n)
{
    80000db6:	1141                	addi	sp,sp,-16
    80000db8:	e422                	sd	s0,8(sp)
    80000dba:	0800                	addi	s0,sp,16
  char *os;

  os = s;
  if (n <= 0)
    80000dbc:	02c05363          	blez	a2,80000de2 <safestrcpy+0x2c>
    80000dc0:	fff6069b          	addiw	a3,a2,-1
    80000dc4:	1682                	slli	a3,a3,0x20
    80000dc6:	9281                	srli	a3,a3,0x20
    80000dc8:	96ae                	add	a3,a3,a1
    80000dca:	87aa                	mv	a5,a0
    return os;
  while (--n > 0 && (*s++ = *t++) != 0)
    80000dcc:	00d58963          	beq	a1,a3,80000dde <safestrcpy+0x28>
    80000dd0:	0585                	addi	a1,a1,1
    80000dd2:	0785                	addi	a5,a5,1
    80000dd4:	fff5c703          	lbu	a4,-1(a1)
    80000dd8:	fee78fa3          	sb	a4,-1(a5)
    80000ddc:	fb65                	bnez	a4,80000dcc <safestrcpy+0x16>
    ;
  *s = 0;
    80000dde:	00078023          	sb	zero,0(a5)
  return os;
}
    80000de2:	6422                	ld	s0,8(sp)
    80000de4:	0141                	addi	sp,sp,16
    80000de6:	8082                	ret

0000000080000de8 <strlen>:

int
strlen(const char *s)
{
    80000de8:	1141                	addi	sp,sp,-16
    80000dea:	e422                	sd	s0,8(sp)
    80000dec:	0800                	addi	s0,sp,16
  int n;

  for (n = 0; s[n]; n++)
    80000dee:	00054783          	lbu	a5,0(a0)
    80000df2:	cf91                	beqz	a5,80000e0e <strlen+0x26>
    80000df4:	0505                	addi	a0,a0,1
    80000df6:	87aa                	mv	a5,a0
    80000df8:	86be                	mv	a3,a5
    80000dfa:	0785                	addi	a5,a5,1
    80000dfc:	fff7c703          	lbu	a4,-1(a5)
    80000e00:	ff65                	bnez	a4,80000df8 <strlen+0x10>
    80000e02:	40a6853b          	subw	a0,a3,a0
    80000e06:	2505                	addiw	a0,a0,1
    ;
  return n;
}
    80000e08:	6422                	ld	s0,8(sp)
    80000e0a:	0141                	addi	sp,sp,16
    80000e0c:	8082                	ret
  for (n = 0; s[n]; n++)
    80000e0e:	4501                	li	a0,0
    80000e10:	bfe5                	j	80000e08 <strlen+0x20>

0000000080000e12 <main>:
volatile static int started = 0;

// start() jumps here in supervisor mode on all CPUs.
void
main()
{
    80000e12:	1141                	addi	sp,sp,-16
    80000e14:	e406                	sd	ra,8(sp)
    80000e16:	e022                	sd	s0,0(sp)
    80000e18:	0800                	addi	s0,sp,16
  if (cpuid() == 0) {
    80000e1a:	25f000ef          	jal	80001878 <cpuid>
    virtio_disk_init(); // emulated hard disk
    userinit();         // first user process
    __atomic_thread_fence(__ATOMIC_SEQ_CST);
    started = 1;
  } else {
    while (started == 0)
    80000e1e:	00009717          	auipc	a4,0x9
    80000e22:	39270713          	addi	a4,a4,914 # 8000a1b0 <started>
  if (cpuid() == 0) {
    80000e26:	c51d                	beqz	a0,80000e54 <main+0x42>
    while (started == 0)
    80000e28:	431c                	lw	a5,0(a4)
    80000e2a:	2781                	sext.w	a5,a5
    80000e2c:	dff5                	beqz	a5,80000e28 <main+0x16>
      ;
    __atomic_thread_fence(__ATOMIC_SEQ_CST);
    80000e2e:	0330000f          	fence	rw,rw
    printk("hart %d starting\n", cpuid());
    80000e32:	247000ef          	jal	80001878 <cpuid>
    80000e36:	85aa                	mv	a1,a0
    80000e38:	00006517          	auipc	a0,0x6
    80000e3c:	26050513          	addi	a0,a0,608 # 80007098 <etext+0x98>
    80000e40:	eaeff0ef          	jal	800004ee <printk>
    kvminithart();  // turn on paging
    80000e44:	080000ef          	jal	80000ec4 <kvminithart>
    trapinithart(); // install kernel trap vector
    80000e48:	588010ef          	jal	800023d0 <trapinithart>
    plicinithart(); // ask PLIC for device interrupts
    80000e4c:	5bc040ef          	jal	80005408 <plicinithart>
  }

  scheduler();
    80000e50:	6c7000ef          	jal	80001d16 <scheduler>
    consoleinit();
    80000e54:	dc4ff0ef          	jal	80000418 <consoleinit>
    printkinit();
    80000e58:	9b9ff0ef          	jal	80000810 <printkinit>
    printk("\n");
    80000e5c:	00006517          	auipc	a0,0x6
    80000e60:	21c50513          	addi	a0,a0,540 # 80007078 <etext+0x78>
    80000e64:	e8aff0ef          	jal	800004ee <printk>
    printk("xv6 kernel is booting\n");
    80000e68:	00006517          	auipc	a0,0x6
    80000e6c:	21850513          	addi	a0,a0,536 # 80007080 <etext+0x80>
    80000e70:	e7eff0ef          	jal	800004ee <printk>
    printk("\n");
    80000e74:	00006517          	auipc	a0,0x6
    80000e78:	20450513          	addi	a0,a0,516 # 80007078 <etext+0x78>
    80000e7c:	e72ff0ef          	jal	800004ee <printk>
    kinit();            // physical page allocator
    80000e80:	c29ff0ef          	jal	80000aa8 <kinit>
    kvminit();          // create kernel page table
    80000e84:	2ca000ef          	jal	8000114e <kvminit>
    kvminithart();      // turn on paging
    80000e88:	03c000ef          	jal	80000ec4 <kvminithart>
    procinit();         // process table
    80000e8c:	137000ef          	jal	800017c2 <procinit>
    trapinit();         // trap vectors
    80000e90:	51c010ef          	jal	800023ac <trapinit>
    trapinithart();     // install kernel trap vector
    80000e94:	53c010ef          	jal	800023d0 <trapinithart>
    plicinit();         // set up interrupt controller
    80000e98:	556040ef          	jal	800053ee <plicinit>
    plicinithart();     // ask PLIC for device interrupts
    80000e9c:	56c040ef          	jal	80005408 <plicinithart>
    binit();            // buffer cache
    80000ea0:	3c7010ef          	jal	80002a66 <binit>
    iinit();            // inode table
    80000ea4:	14c020ef          	jal	80002ff0 <iinit>
    fileinit();         // file table
    80000ea8:	0a6030ef          	jal	80003f4e <fileinit>
    virtio_disk_init(); // emulated hard disk
    80000eac:	64c040ef          	jal	800054f8 <virtio_disk_init>
    userinit();         // first user process
    80000eb0:	4bb000ef          	jal	80001b6a <userinit>
    __atomic_thread_fence(__ATOMIC_SEQ_CST);
    80000eb4:	0330000f          	fence	rw,rw
    started = 1;
    80000eb8:	4785                	li	a5,1
    80000eba:	00009717          	auipc	a4,0x9
    80000ebe:	2ef72b23          	sw	a5,758(a4) # 8000a1b0 <started>
    80000ec2:	b779                	j	80000e50 <main+0x3e>

0000000080000ec4 <kvminithart>:

// Switch the current CPU's h/w page table register to
// the kernel's page table, and enable paging.
void
kvminithart()
{
    80000ec4:	1141                	addi	sp,sp,-16
    80000ec6:	e422                	sd	s0,8(sp)
    80000ec8:	0800                	addi	s0,sp,16
// flush the TLB.
static inline void
sfence_vma()
{
  // the zero, zero means flush all TLB entries.
  asm volatile("sfence.vma zero, zero");
    80000eca:	12000073          	sfence.vma
  // wait for any previous writes to the page table memory to finish.
  sfence_vma();

  w_satp(MAKE_SATP(kernel_pagetable));
    80000ece:	00009797          	auipc	a5,0x9
    80000ed2:	2ea7b783          	ld	a5,746(a5) # 8000a1b8 <kernel_pagetable>
    80000ed6:	83b1                	srli	a5,a5,0xc
    80000ed8:	577d                	li	a4,-1
    80000eda:	177e                	slli	a4,a4,0x3f
    80000edc:	8fd9                	or	a5,a5,a4
  asm volatile("csrw satp, %0" : : "r"(x));
    80000ede:	18079073          	csrw	satp,a5
  asm volatile("sfence.vma zero, zero");
    80000ee2:	12000073          	sfence.vma

  // flush stale entries from the TLB.
  sfence_vma();
}
    80000ee6:	6422                	ld	s0,8(sp)
    80000ee8:	0141                	addi	sp,sp,16
    80000eea:	8082                	ret

0000000080000eec <walk>:
//   21..29 -- 9 bits of level-1 index.
//   12..20 -- 9 bits of level-0 index.
//    0..11 -- 12 bits of byte offset within the page.
pte_t *
walk(pagetable_t pagetable, uint64 va, int alloc)
{
    80000eec:	7139                	addi	sp,sp,-64
    80000eee:	fc06                	sd	ra,56(sp)
    80000ef0:	f822                	sd	s0,48(sp)
    80000ef2:	f426                	sd	s1,40(sp)
    80000ef4:	f04a                	sd	s2,32(sp)
    80000ef6:	ec4e                	sd	s3,24(sp)
    80000ef8:	e852                	sd	s4,16(sp)
    80000efa:	e456                	sd	s5,8(sp)
    80000efc:	e05a                	sd	s6,0(sp)
    80000efe:	0080                	addi	s0,sp,64
    80000f00:	84aa                	mv	s1,a0
    80000f02:	89ae                	mv	s3,a1
    80000f04:	8ab2                	mv	s5,a2
  if (va >= MAXVA)
    80000f06:	57fd                	li	a5,-1
    80000f08:	83e9                	srli	a5,a5,0x1a
    80000f0a:	4a79                	li	s4,30
    panic("walk");

  for (int level = 2; level > 0; level--) {
    80000f0c:	4b31                	li	s6,12
  if (va >= MAXVA)
    80000f0e:	02b7fc63          	bgeu	a5,a1,80000f46 <walk+0x5a>
    panic("walk");
    80000f12:	00006517          	auipc	a0,0x6
    80000f16:	19e50513          	addi	a0,a0,414 # 800070b0 <etext+0xb0>
    80000f1a:	8bbff0ef          	jal	800007d4 <panic>
    pte_t *pte = &pagetable[PX(level, va)];
    if (*pte & PTE_V) {
      pagetable = (pagetable_t)PTE2PA(*pte);
    } else {
      if (!alloc || (pagetable = (pde_t *)kalloc()) == 0)
    80000f1e:	060a8263          	beqz	s5,80000f82 <walk+0x96>
    80000f22:	bbbff0ef          	jal	80000adc <kalloc>
    80000f26:	84aa                	mv	s1,a0
    80000f28:	c139                	beqz	a0,80000f6e <walk+0x82>
        return 0;
      memset(pagetable, 0, PGSIZE);
    80000f2a:	6605                	lui	a2,0x1
    80000f2c:	4581                	li	a1,0
    80000f2e:	d4bff0ef          	jal	80000c78 <memset>
      *pte = PA2PTE(pagetable) | PTE_V;
    80000f32:	00c4d793          	srli	a5,s1,0xc
    80000f36:	07aa                	slli	a5,a5,0xa
    80000f38:	0017e793          	ori	a5,a5,1
    80000f3c:	00f93023          	sd	a5,0(s2)
  for (int level = 2; level > 0; level--) {
    80000f40:	3a5d                	addiw	s4,s4,-9 # ffffffffffffeff7 <end+0xffffffff7ffdbb1f>
    80000f42:	036a0063          	beq	s4,s6,80000f62 <walk+0x76>
    pte_t *pte = &pagetable[PX(level, va)];
    80000f46:	0149d933          	srl	s2,s3,s4
    80000f4a:	1ff97913          	andi	s2,s2,511
    80000f4e:	090e                	slli	s2,s2,0x3
    80000f50:	9926                	add	s2,s2,s1
    if (*pte & PTE_V) {
    80000f52:	00093483          	ld	s1,0(s2)
    80000f56:	0014f793          	andi	a5,s1,1
    80000f5a:	d3f1                	beqz	a5,80000f1e <walk+0x32>
      pagetable = (pagetable_t)PTE2PA(*pte);
    80000f5c:	80a9                	srli	s1,s1,0xa
    80000f5e:	04b2                	slli	s1,s1,0xc
    80000f60:	b7c5                	j	80000f40 <walk+0x54>
    }
  }
  return &pagetable[PX(0, va)];
    80000f62:	00c9d513          	srli	a0,s3,0xc
    80000f66:	1ff57513          	andi	a0,a0,511
    80000f6a:	050e                	slli	a0,a0,0x3
    80000f6c:	9526                	add	a0,a0,s1
}
    80000f6e:	70e2                	ld	ra,56(sp)
    80000f70:	7442                	ld	s0,48(sp)
    80000f72:	74a2                	ld	s1,40(sp)
    80000f74:	7902                	ld	s2,32(sp)
    80000f76:	69e2                	ld	s3,24(sp)
    80000f78:	6a42                	ld	s4,16(sp)
    80000f7a:	6aa2                	ld	s5,8(sp)
    80000f7c:	6b02                	ld	s6,0(sp)
    80000f7e:	6121                	addi	sp,sp,64
    80000f80:	8082                	ret
        return 0;
    80000f82:	4501                	li	a0,0
    80000f84:	b7ed                	j	80000f6e <walk+0x82>

0000000080000f86 <walkaddr>:
walkaddr(pagetable_t pagetable, uint64 va)
{
  pte_t *pte;
  uint64 pa;

  if (va >= MAXVA)
    80000f86:	57fd                	li	a5,-1
    80000f88:	83e9                	srli	a5,a5,0x1a
    80000f8a:	00b7f463          	bgeu	a5,a1,80000f92 <walkaddr+0xc>
    return 0;
    80000f8e:	4501                	li	a0,0
    return 0;
  if ((*pte & PTE_U) == 0)
    return 0;
  pa = PTE2PA(*pte);
  return pa;
}
    80000f90:	8082                	ret
{
    80000f92:	1141                	addi	sp,sp,-16
    80000f94:	e406                	sd	ra,8(sp)
    80000f96:	e022                	sd	s0,0(sp)
    80000f98:	0800                	addi	s0,sp,16
  pte = walk(pagetable, va, 0);
    80000f9a:	4601                	li	a2,0
    80000f9c:	f51ff0ef          	jal	80000eec <walk>
  if (pte == 0)
    80000fa0:	c105                	beqz	a0,80000fc0 <walkaddr+0x3a>
  if ((*pte & PTE_V) == 0)
    80000fa2:	611c                	ld	a5,0(a0)
  if ((*pte & PTE_U) == 0)
    80000fa4:	0117f693          	andi	a3,a5,17
    80000fa8:	4745                	li	a4,17
    return 0;
    80000faa:	4501                	li	a0,0
  if ((*pte & PTE_U) == 0)
    80000fac:	00e68663          	beq	a3,a4,80000fb8 <walkaddr+0x32>
}
    80000fb0:	60a2                	ld	ra,8(sp)
    80000fb2:	6402                	ld	s0,0(sp)
    80000fb4:	0141                	addi	sp,sp,16
    80000fb6:	8082                	ret
  pa = PTE2PA(*pte);
    80000fb8:	83a9                	srli	a5,a5,0xa
    80000fba:	00c79513          	slli	a0,a5,0xc
  return pa;
    80000fbe:	bfcd                	j	80000fb0 <walkaddr+0x2a>
    return 0;
    80000fc0:	4501                	li	a0,0
    80000fc2:	b7fd                	j	80000fb0 <walkaddr+0x2a>

0000000080000fc4 <mappages>:
// va and size MUST be page-aligned.
// Returns 0 on success, -1 if walk() couldn't
// allocate a needed page-table page.
int
mappages(pagetable_t pagetable, uint64 va, uint64 size, uint64 pa, int perm)
{
    80000fc4:	715d                	addi	sp,sp,-80
    80000fc6:	e486                	sd	ra,72(sp)
    80000fc8:	e0a2                	sd	s0,64(sp)
    80000fca:	fc26                	sd	s1,56(sp)
    80000fcc:	f84a                	sd	s2,48(sp)
    80000fce:	f44e                	sd	s3,40(sp)
    80000fd0:	f052                	sd	s4,32(sp)
    80000fd2:	ec56                	sd	s5,24(sp)
    80000fd4:	e85a                	sd	s6,16(sp)
    80000fd6:	e45e                	sd	s7,8(sp)
    80000fd8:	0880                	addi	s0,sp,80
  uint64 a, last;
  pte_t *pte;

  if ((va % PGSIZE) != 0)
    80000fda:	03459793          	slli	a5,a1,0x34
    80000fde:	e7a9                	bnez	a5,80001028 <mappages+0x64>
    80000fe0:	8aaa                	mv	s5,a0
    80000fe2:	8b3a                	mv	s6,a4
    panic("mappages: va not aligned");

  if ((size % PGSIZE) != 0)
    80000fe4:	03461793          	slli	a5,a2,0x34
    80000fe8:	e7b1                	bnez	a5,80001034 <mappages+0x70>
    panic("mappages: size not aligned");

  if (size == 0)
    80000fea:	ca39                	beqz	a2,80001040 <mappages+0x7c>
    panic("mappages: size");

  a = va;
  last = va + size - PGSIZE;
    80000fec:	77fd                	lui	a5,0xfffff
    80000fee:	963e                	add	a2,a2,a5
    80000ff0:	00b609b3          	add	s3,a2,a1
  a = va;
    80000ff4:	892e                	mv	s2,a1
    80000ff6:	40b68a33          	sub	s4,a3,a1
    if (*pte & PTE_V)
      panic("mappages: remap");
    *pte = PA2PTE(pa) | perm | PTE_V;
    if (a == last)
      break;
    a += PGSIZE;
    80000ffa:	6b85                	lui	s7,0x1
    80000ffc:	014904b3          	add	s1,s2,s4
    if ((pte = walk(pagetable, a, 1)) == 0)
    80001000:	4605                	li	a2,1
    80001002:	85ca                	mv	a1,s2
    80001004:	8556                	mv	a0,s5
    80001006:	ee7ff0ef          	jal	80000eec <walk>
    8000100a:	c539                	beqz	a0,80001058 <mappages+0x94>
    if (*pte & PTE_V)
    8000100c:	611c                	ld	a5,0(a0)
    8000100e:	8b85                	andi	a5,a5,1
    80001010:	ef95                	bnez	a5,8000104c <mappages+0x88>
    *pte = PA2PTE(pa) | perm | PTE_V;
    80001012:	80b1                	srli	s1,s1,0xc
    80001014:	04aa                	slli	s1,s1,0xa
    80001016:	0164e4b3          	or	s1,s1,s6
    8000101a:	0014e493          	ori	s1,s1,1
    8000101e:	e104                	sd	s1,0(a0)
    if (a == last)
    80001020:	05390863          	beq	s2,s3,80001070 <mappages+0xac>
    a += PGSIZE;
    80001024:	995e                	add	s2,s2,s7
    if ((pte = walk(pagetable, a, 1)) == 0)
    80001026:	bfd9                	j	80000ffc <mappages+0x38>
    panic("mappages: va not aligned");
    80001028:	00006517          	auipc	a0,0x6
    8000102c:	09050513          	addi	a0,a0,144 # 800070b8 <etext+0xb8>
    80001030:	fa4ff0ef          	jal	800007d4 <panic>
    panic("mappages: size not aligned");
    80001034:	00006517          	auipc	a0,0x6
    80001038:	0a450513          	addi	a0,a0,164 # 800070d8 <etext+0xd8>
    8000103c:	f98ff0ef          	jal	800007d4 <panic>
    panic("mappages: size");
    80001040:	00006517          	auipc	a0,0x6
    80001044:	0b850513          	addi	a0,a0,184 # 800070f8 <etext+0xf8>
    80001048:	f8cff0ef          	jal	800007d4 <panic>
      panic("mappages: remap");
    8000104c:	00006517          	auipc	a0,0x6
    80001050:	0bc50513          	addi	a0,a0,188 # 80007108 <etext+0x108>
    80001054:	f80ff0ef          	jal	800007d4 <panic>
      return -1;
    80001058:	557d                	li	a0,-1
    pa += PGSIZE;
  }
  return 0;
}
    8000105a:	60a6                	ld	ra,72(sp)
    8000105c:	6406                	ld	s0,64(sp)
    8000105e:	74e2                	ld	s1,56(sp)
    80001060:	7942                	ld	s2,48(sp)
    80001062:	79a2                	ld	s3,40(sp)
    80001064:	7a02                	ld	s4,32(sp)
    80001066:	6ae2                	ld	s5,24(sp)
    80001068:	6b42                	ld	s6,16(sp)
    8000106a:	6ba2                	ld	s7,8(sp)
    8000106c:	6161                	addi	sp,sp,80
    8000106e:	8082                	ret
  return 0;
    80001070:	4501                	li	a0,0
    80001072:	b7e5                	j	8000105a <mappages+0x96>

0000000080001074 <kvmmap>:
{
    80001074:	1141                	addi	sp,sp,-16
    80001076:	e406                	sd	ra,8(sp)
    80001078:	e022                	sd	s0,0(sp)
    8000107a:	0800                	addi	s0,sp,16
    8000107c:	87b6                	mv	a5,a3
  if (mappages(kpgtbl, va, sz, pa, perm) != 0)
    8000107e:	86b2                	mv	a3,a2
    80001080:	863e                	mv	a2,a5
    80001082:	f43ff0ef          	jal	80000fc4 <mappages>
    80001086:	e509                	bnez	a0,80001090 <kvmmap+0x1c>
}
    80001088:	60a2                	ld	ra,8(sp)
    8000108a:	6402                	ld	s0,0(sp)
    8000108c:	0141                	addi	sp,sp,16
    8000108e:	8082                	ret
    panic("kvmmap");
    80001090:	00006517          	auipc	a0,0x6
    80001094:	08850513          	addi	a0,a0,136 # 80007118 <etext+0x118>
    80001098:	f3cff0ef          	jal	800007d4 <panic>

000000008000109c <kvmmake>:
{
    8000109c:	1101                	addi	sp,sp,-32
    8000109e:	ec06                	sd	ra,24(sp)
    800010a0:	e822                	sd	s0,16(sp)
    800010a2:	e426                	sd	s1,8(sp)
    800010a4:	e04a                	sd	s2,0(sp)
    800010a6:	1000                	addi	s0,sp,32
  kpgtbl = (pagetable_t)kalloc();
    800010a8:	a35ff0ef          	jal	80000adc <kalloc>
    800010ac:	84aa                	mv	s1,a0
  memset(kpgtbl, 0, PGSIZE);
    800010ae:	6605                	lui	a2,0x1
    800010b0:	4581                	li	a1,0
    800010b2:	bc7ff0ef          	jal	80000c78 <memset>
  kvmmap(kpgtbl, UART0, UART0, PGSIZE, PTE_R | PTE_W);
    800010b6:	4719                	li	a4,6
    800010b8:	6685                	lui	a3,0x1
    800010ba:	10000637          	lui	a2,0x10000
    800010be:	100005b7          	lui	a1,0x10000
    800010c2:	8526                	mv	a0,s1
    800010c4:	fb1ff0ef          	jal	80001074 <kvmmap>
  kvmmap(kpgtbl, VIRTIO0, VIRTIO0, PGSIZE, PTE_R | PTE_W);
    800010c8:	4719                	li	a4,6
    800010ca:	6685                	lui	a3,0x1
    800010cc:	10001637          	lui	a2,0x10001
    800010d0:	100015b7          	lui	a1,0x10001
    800010d4:	8526                	mv	a0,s1
    800010d6:	f9fff0ef          	jal	80001074 <kvmmap>
  kvmmap(kpgtbl, PLIC, PLIC, 0x4000000, PTE_R | PTE_W);
    800010da:	4719                	li	a4,6
    800010dc:	040006b7          	lui	a3,0x4000
    800010e0:	0c000637          	lui	a2,0xc000
    800010e4:	0c0005b7          	lui	a1,0xc000
    800010e8:	8526                	mv	a0,s1
    800010ea:	f8bff0ef          	jal	80001074 <kvmmap>
  kvmmap(kpgtbl, KERNBASE, KERNBASE, (uint64)etext - KERNBASE, PTE_R | PTE_X);
    800010ee:	00006917          	auipc	s2,0x6
    800010f2:	f1290913          	addi	s2,s2,-238 # 80007000 <etext>
    800010f6:	4729                	li	a4,10
    800010f8:	80006697          	auipc	a3,0x80006
    800010fc:	f0868693          	addi	a3,a3,-248 # 7000 <_entry-0x7fff9000>
    80001100:	4605                	li	a2,1
    80001102:	067e                	slli	a2,a2,0x1f
    80001104:	85b2                	mv	a1,a2
    80001106:	8526                	mv	a0,s1
    80001108:	f6dff0ef          	jal	80001074 <kvmmap>
  kvmmap(kpgtbl, (uint64)etext, (uint64)etext, PHYSTOP - (uint64)etext,
    8000110c:	46c5                	li	a3,17
    8000110e:	06ee                	slli	a3,a3,0x1b
    80001110:	4719                	li	a4,6
    80001112:	412686b3          	sub	a3,a3,s2
    80001116:	864a                	mv	a2,s2
    80001118:	85ca                	mv	a1,s2
    8000111a:	8526                	mv	a0,s1
    8000111c:	f59ff0ef          	jal	80001074 <kvmmap>
  kvmmap(kpgtbl, TRAMPOLINE, (uint64)trampoline, PGSIZE, PTE_R | PTE_X);
    80001120:	4729                	li	a4,10
    80001122:	6685                	lui	a3,0x1
    80001124:	00005617          	auipc	a2,0x5
    80001128:	edc60613          	addi	a2,a2,-292 # 80006000 <_trampoline>
    8000112c:	040005b7          	lui	a1,0x4000
    80001130:	15fd                	addi	a1,a1,-1 # 3ffffff <_entry-0x7c000001>
    80001132:	05b2                	slli	a1,a1,0xc
    80001134:	8526                	mv	a0,s1
    80001136:	f3fff0ef          	jal	80001074 <kvmmap>
  proc_mapstacks(kpgtbl);
    8000113a:	8526                	mv	a0,s1
    8000113c:	5ee000ef          	jal	8000172a <proc_mapstacks>
}
    80001140:	8526                	mv	a0,s1
    80001142:	60e2                	ld	ra,24(sp)
    80001144:	6442                	ld	s0,16(sp)
    80001146:	64a2                	ld	s1,8(sp)
    80001148:	6902                	ld	s2,0(sp)
    8000114a:	6105                	addi	sp,sp,32
    8000114c:	8082                	ret

000000008000114e <kvminit>:
{
    8000114e:	1141                	addi	sp,sp,-16
    80001150:	e406                	sd	ra,8(sp)
    80001152:	e022                	sd	s0,0(sp)
    80001154:	0800                	addi	s0,sp,16
  kernel_pagetable = kvmmake();
    80001156:	f47ff0ef          	jal	8000109c <kvmmake>
    8000115a:	00009797          	auipc	a5,0x9
    8000115e:	04a7bf23          	sd	a0,94(a5) # 8000a1b8 <kernel_pagetable>
}
    80001162:	60a2                	ld	ra,8(sp)
    80001164:	6402                	ld	s0,0(sp)
    80001166:	0141                	addi	sp,sp,16
    80001168:	8082                	ret

000000008000116a <uvmcreate>:

// create an empty user page table.
// returns 0 if out of memory.
pagetable_t
uvmcreate()
{
    8000116a:	1101                	addi	sp,sp,-32
    8000116c:	ec06                	sd	ra,24(sp)
    8000116e:	e822                	sd	s0,16(sp)
    80001170:	e426                	sd	s1,8(sp)
    80001172:	1000                	addi	s0,sp,32
  pagetable_t pagetable;
  pagetable = (pagetable_t)kalloc();
    80001174:	969ff0ef          	jal	80000adc <kalloc>
    80001178:	84aa                	mv	s1,a0
  if (pagetable == 0)
    8000117a:	c509                	beqz	a0,80001184 <uvmcreate+0x1a>
    return 0;
  memset(pagetable, 0, PGSIZE);
    8000117c:	6605                	lui	a2,0x1
    8000117e:	4581                	li	a1,0
    80001180:	af9ff0ef          	jal	80000c78 <memset>
  return pagetable;
}
    80001184:	8526                	mv	a0,s1
    80001186:	60e2                	ld	ra,24(sp)
    80001188:	6442                	ld	s0,16(sp)
    8000118a:	64a2                	ld	s1,8(sp)
    8000118c:	6105                	addi	sp,sp,32
    8000118e:	8082                	ret

0000000080001190 <uvmunmap>:
// Remove npages of mappings starting from va. va must be
// page-aligned. It's OK if the mappings don't exist.
// Optionally free the physical memory.
void
uvmunmap(pagetable_t pagetable, uint64 va, uint64 npages, int do_free)
{
    80001190:	7139                	addi	sp,sp,-64
    80001192:	fc06                	sd	ra,56(sp)
    80001194:	f822                	sd	s0,48(sp)
    80001196:	0080                	addi	s0,sp,64
  uint64 a;
  pte_t *pte;

  if ((va % PGSIZE) != 0)
    80001198:	03459793          	slli	a5,a1,0x34
    8000119c:	e38d                	bnez	a5,800011be <uvmunmap+0x2e>
    8000119e:	f04a                	sd	s2,32(sp)
    800011a0:	ec4e                	sd	s3,24(sp)
    800011a2:	e852                	sd	s4,16(sp)
    800011a4:	e456                	sd	s5,8(sp)
    800011a6:	e05a                	sd	s6,0(sp)
    800011a8:	8a2a                	mv	s4,a0
    800011aa:	892e                	mv	s2,a1
    800011ac:	8ab6                	mv	s5,a3
    panic("uvmunmap: not aligned");

  for (a = va; a < va + npages * PGSIZE; a += PGSIZE) {
    800011ae:	0632                	slli	a2,a2,0xc
    800011b0:	00b609b3          	add	s3,a2,a1
    800011b4:	6b05                	lui	s6,0x1
    800011b6:	0535f963          	bgeu	a1,s3,80001208 <uvmunmap+0x78>
    800011ba:	f426                	sd	s1,40(sp)
    800011bc:	a015                	j	800011e0 <uvmunmap+0x50>
    800011be:	f426                	sd	s1,40(sp)
    800011c0:	f04a                	sd	s2,32(sp)
    800011c2:	ec4e                	sd	s3,24(sp)
    800011c4:	e852                	sd	s4,16(sp)
    800011c6:	e456                	sd	s5,8(sp)
    800011c8:	e05a                	sd	s6,0(sp)
    panic("uvmunmap: not aligned");
    800011ca:	00006517          	auipc	a0,0x6
    800011ce:	f5650513          	addi	a0,a0,-170 # 80007120 <etext+0x120>
    800011d2:	e02ff0ef          	jal	800007d4 <panic>
      continue;
    if (do_free) {
      uint64 pa = PTE2PA(*pte);
      kfree((void *)pa);
    }
    *pte = 0;
    800011d6:	0004b023          	sd	zero,0(s1)
  for (a = va; a < va + npages * PGSIZE; a += PGSIZE) {
    800011da:	995a                	add	s2,s2,s6
    800011dc:	03397563          	bgeu	s2,s3,80001206 <uvmunmap+0x76>
    if ((pte = walk(pagetable, a, 0)) == 0) // leaf page table entry allocated?
    800011e0:	4601                	li	a2,0
    800011e2:	85ca                	mv	a1,s2
    800011e4:	8552                	mv	a0,s4
    800011e6:	d07ff0ef          	jal	80000eec <walk>
    800011ea:	84aa                	mv	s1,a0
    800011ec:	d57d                	beqz	a0,800011da <uvmunmap+0x4a>
    if ((*pte & PTE_V) == 0) // has physical page been allocated?
    800011ee:	611c                	ld	a5,0(a0)
    800011f0:	0017f713          	andi	a4,a5,1
    800011f4:	d37d                	beqz	a4,800011da <uvmunmap+0x4a>
    if (do_free) {
    800011f6:	fe0a80e3          	beqz	s5,800011d6 <uvmunmap+0x46>
      uint64 pa = PTE2PA(*pte);
    800011fa:	83a9                	srli	a5,a5,0xa
      kfree((void *)pa);
    800011fc:	00c79513          	slli	a0,a5,0xc
    80001200:	ffaff0ef          	jal	800009fa <kfree>
    80001204:	bfc9                	j	800011d6 <uvmunmap+0x46>
    80001206:	74a2                	ld	s1,40(sp)
    80001208:	7902                	ld	s2,32(sp)
    8000120a:	69e2                	ld	s3,24(sp)
    8000120c:	6a42                	ld	s4,16(sp)
    8000120e:	6aa2                	ld	s5,8(sp)
    80001210:	6b02                	ld	s6,0(sp)
  }
}
    80001212:	70e2                	ld	ra,56(sp)
    80001214:	7442                	ld	s0,48(sp)
    80001216:	6121                	addi	sp,sp,64
    80001218:	8082                	ret

000000008000121a <uvmdealloc>:
// newsz.  oldsz and newsz need not be page-aligned, nor does newsz
// need to be less than oldsz.  oldsz can be larger than the actual
// process size.  Returns the new process size.
uint64
uvmdealloc(pagetable_t pagetable, uint64 oldsz, uint64 newsz)
{
    8000121a:	1101                	addi	sp,sp,-32
    8000121c:	ec06                	sd	ra,24(sp)
    8000121e:	e822                	sd	s0,16(sp)
    80001220:	e426                	sd	s1,8(sp)
    80001222:	1000                	addi	s0,sp,32
  if (newsz >= oldsz)
    return oldsz;
    80001224:	84ae                	mv	s1,a1
  if (newsz >= oldsz)
    80001226:	00b67d63          	bgeu	a2,a1,80001240 <uvmdealloc+0x26>
    8000122a:	84b2                	mv	s1,a2

  if (PGROUNDUP(newsz) < PGROUNDUP(oldsz)) {
    8000122c:	6785                	lui	a5,0x1
    8000122e:	17fd                	addi	a5,a5,-1 # fff <_entry-0x7ffff001>
    80001230:	00f60733          	add	a4,a2,a5
    80001234:	76fd                	lui	a3,0xfffff
    80001236:	8f75                	and	a4,a4,a3
    80001238:	97ae                	add	a5,a5,a1
    8000123a:	8ff5                	and	a5,a5,a3
    8000123c:	00f76863          	bltu	a4,a5,8000124c <uvmdealloc+0x32>
    int npages = (PGROUNDUP(oldsz) - PGROUNDUP(newsz)) / PGSIZE;
    uvmunmap(pagetable, PGROUNDUP(newsz), npages, 1);
  }

  return newsz;
}
    80001240:	8526                	mv	a0,s1
    80001242:	60e2                	ld	ra,24(sp)
    80001244:	6442                	ld	s0,16(sp)
    80001246:	64a2                	ld	s1,8(sp)
    80001248:	6105                	addi	sp,sp,32
    8000124a:	8082                	ret
    int npages = (PGROUNDUP(oldsz) - PGROUNDUP(newsz)) / PGSIZE;
    8000124c:	8f99                	sub	a5,a5,a4
    8000124e:	83b1                	srli	a5,a5,0xc
    uvmunmap(pagetable, PGROUNDUP(newsz), npages, 1);
    80001250:	4685                	li	a3,1
    80001252:	0007861b          	sext.w	a2,a5
    80001256:	85ba                	mv	a1,a4
    80001258:	f39ff0ef          	jal	80001190 <uvmunmap>
    8000125c:	b7d5                	j	80001240 <uvmdealloc+0x26>

000000008000125e <uvmalloc>:
  if (newsz < oldsz)
    8000125e:	08b66f63          	bltu	a2,a1,800012fc <uvmalloc+0x9e>
{
    80001262:	7139                	addi	sp,sp,-64
    80001264:	fc06                	sd	ra,56(sp)
    80001266:	f822                	sd	s0,48(sp)
    80001268:	ec4e                	sd	s3,24(sp)
    8000126a:	e852                	sd	s4,16(sp)
    8000126c:	e456                	sd	s5,8(sp)
    8000126e:	0080                	addi	s0,sp,64
    80001270:	8aaa                	mv	s5,a0
    80001272:	8a32                	mv	s4,a2
  oldsz = PGROUNDUP(oldsz);
    80001274:	6785                	lui	a5,0x1
    80001276:	17fd                	addi	a5,a5,-1 # fff <_entry-0x7ffff001>
    80001278:	95be                	add	a1,a1,a5
    8000127a:	77fd                	lui	a5,0xfffff
    8000127c:	00f5f9b3          	and	s3,a1,a5
  for (a = oldsz; a < newsz; a += PGSIZE) {
    80001280:	08c9f063          	bgeu	s3,a2,80001300 <uvmalloc+0xa2>
    80001284:	f426                	sd	s1,40(sp)
    80001286:	f04a                	sd	s2,32(sp)
    80001288:	e05a                	sd	s6,0(sp)
    8000128a:	894e                	mv	s2,s3
    if (mappages(pagetable, a, PGSIZE, (uint64)mem, PTE_R | PTE_U | xperm) !=
    8000128c:	0126eb13          	ori	s6,a3,18
    mem = kalloc();
    80001290:	84dff0ef          	jal	80000adc <kalloc>
    80001294:	84aa                	mv	s1,a0
    if (mem == 0) {
    80001296:	c515                	beqz	a0,800012c2 <uvmalloc+0x64>
    memset(mem, 0, PGSIZE);
    80001298:	6605                	lui	a2,0x1
    8000129a:	4581                	li	a1,0
    8000129c:	9ddff0ef          	jal	80000c78 <memset>
    if (mappages(pagetable, a, PGSIZE, (uint64)mem, PTE_R | PTE_U | xperm) !=
    800012a0:	875a                	mv	a4,s6
    800012a2:	86a6                	mv	a3,s1
    800012a4:	6605                	lui	a2,0x1
    800012a6:	85ca                	mv	a1,s2
    800012a8:	8556                	mv	a0,s5
    800012aa:	d1bff0ef          	jal	80000fc4 <mappages>
    800012ae:	e915                	bnez	a0,800012e2 <uvmalloc+0x84>
  for (a = oldsz; a < newsz; a += PGSIZE) {
    800012b0:	6785                	lui	a5,0x1
    800012b2:	993e                	add	s2,s2,a5
    800012b4:	fd496ee3          	bltu	s2,s4,80001290 <uvmalloc+0x32>
  return newsz;
    800012b8:	8552                	mv	a0,s4
    800012ba:	74a2                	ld	s1,40(sp)
    800012bc:	7902                	ld	s2,32(sp)
    800012be:	6b02                	ld	s6,0(sp)
    800012c0:	a811                	j	800012d4 <uvmalloc+0x76>
      uvmdealloc(pagetable, a, oldsz);
    800012c2:	864e                	mv	a2,s3
    800012c4:	85ca                	mv	a1,s2
    800012c6:	8556                	mv	a0,s5
    800012c8:	f53ff0ef          	jal	8000121a <uvmdealloc>
      return 0;
    800012cc:	4501                	li	a0,0
    800012ce:	74a2                	ld	s1,40(sp)
    800012d0:	7902                	ld	s2,32(sp)
    800012d2:	6b02                	ld	s6,0(sp)
}
    800012d4:	70e2                	ld	ra,56(sp)
    800012d6:	7442                	ld	s0,48(sp)
    800012d8:	69e2                	ld	s3,24(sp)
    800012da:	6a42                	ld	s4,16(sp)
    800012dc:	6aa2                	ld	s5,8(sp)
    800012de:	6121                	addi	sp,sp,64
    800012e0:	8082                	ret
      kfree(mem);
    800012e2:	8526                	mv	a0,s1
    800012e4:	f16ff0ef          	jal	800009fa <kfree>
      uvmdealloc(pagetable, a, oldsz);
    800012e8:	864e                	mv	a2,s3
    800012ea:	85ca                	mv	a1,s2
    800012ec:	8556                	mv	a0,s5
    800012ee:	f2dff0ef          	jal	8000121a <uvmdealloc>
      return 0;
    800012f2:	4501                	li	a0,0
    800012f4:	74a2                	ld	s1,40(sp)
    800012f6:	7902                	ld	s2,32(sp)
    800012f8:	6b02                	ld	s6,0(sp)
    800012fa:	bfe9                	j	800012d4 <uvmalloc+0x76>
    return oldsz;
    800012fc:	852e                	mv	a0,a1
}
    800012fe:	8082                	ret
  return newsz;
    80001300:	8532                	mv	a0,a2
    80001302:	bfc9                	j	800012d4 <uvmalloc+0x76>

0000000080001304 <freewalk>:

// Recursively free page-table pages.
// All leaf mappings must already have been removed.
void
freewalk(pagetable_t pagetable)
{
    80001304:	7179                	addi	sp,sp,-48
    80001306:	f406                	sd	ra,40(sp)
    80001308:	f022                	sd	s0,32(sp)
    8000130a:	ec26                	sd	s1,24(sp)
    8000130c:	e84a                	sd	s2,16(sp)
    8000130e:	e44e                	sd	s3,8(sp)
    80001310:	e052                	sd	s4,0(sp)
    80001312:	1800                	addi	s0,sp,48
    80001314:	8a2a                	mv	s4,a0
  // there are 2^9 = 512 PTEs in a page table.
  for (int i = 0; i < 512; i++) {
    80001316:	84aa                	mv	s1,a0
    80001318:	6905                	lui	s2,0x1
    8000131a:	992a                	add	s2,s2,a0
    pte_t pte = pagetable[i];
    if ((pte & PTE_V) && (pte & (PTE_R | PTE_W | PTE_X)) == 0) {
    8000131c:	4985                	li	s3,1
    8000131e:	a819                	j	80001334 <freewalk+0x30>
      // this PTE points to a lower-level page table.
      uint64 child = PTE2PA(pte);
    80001320:	83a9                	srli	a5,a5,0xa
      freewalk((pagetable_t)child);
    80001322:	00c79513          	slli	a0,a5,0xc
    80001326:	fdfff0ef          	jal	80001304 <freewalk>
      pagetable[i] = 0;
    8000132a:	0004b023          	sd	zero,0(s1)
  for (int i = 0; i < 512; i++) {
    8000132e:	04a1                	addi	s1,s1,8
    80001330:	01248f63          	beq	s1,s2,8000134e <freewalk+0x4a>
    pte_t pte = pagetable[i];
    80001334:	609c                	ld	a5,0(s1)
    if ((pte & PTE_V) && (pte & (PTE_R | PTE_W | PTE_X)) == 0) {
    80001336:	00f7f713          	andi	a4,a5,15
    8000133a:	ff3703e3          	beq	a4,s3,80001320 <freewalk+0x1c>
    } else if (pte & PTE_V) {
    8000133e:	8b85                	andi	a5,a5,1
    80001340:	d7fd                	beqz	a5,8000132e <freewalk+0x2a>
      panic("freewalk: leaf");
    80001342:	00006517          	auipc	a0,0x6
    80001346:	df650513          	addi	a0,a0,-522 # 80007138 <etext+0x138>
    8000134a:	c8aff0ef          	jal	800007d4 <panic>
    }
  }
  kfree((void *)pagetable);
    8000134e:	8552                	mv	a0,s4
    80001350:	eaaff0ef          	jal	800009fa <kfree>
}
    80001354:	70a2                	ld	ra,40(sp)
    80001356:	7402                	ld	s0,32(sp)
    80001358:	64e2                	ld	s1,24(sp)
    8000135a:	6942                	ld	s2,16(sp)
    8000135c:	69a2                	ld	s3,8(sp)
    8000135e:	6a02                	ld	s4,0(sp)
    80001360:	6145                	addi	sp,sp,48
    80001362:	8082                	ret

0000000080001364 <uvmfree>:

// Free user memory pages,
// then free page-table pages.
void
uvmfree(pagetable_t pagetable, uint64 sz)
{
    80001364:	1101                	addi	sp,sp,-32
    80001366:	ec06                	sd	ra,24(sp)
    80001368:	e822                	sd	s0,16(sp)
    8000136a:	e426                	sd	s1,8(sp)
    8000136c:	1000                	addi	s0,sp,32
    8000136e:	84aa                	mv	s1,a0
  if (sz > 0)
    80001370:	e989                	bnez	a1,80001382 <uvmfree+0x1e>
    uvmunmap(pagetable, 0, PGROUNDUP(sz) / PGSIZE, 1);
  freewalk(pagetable);
    80001372:	8526                	mv	a0,s1
    80001374:	f91ff0ef          	jal	80001304 <freewalk>
}
    80001378:	60e2                	ld	ra,24(sp)
    8000137a:	6442                	ld	s0,16(sp)
    8000137c:	64a2                	ld	s1,8(sp)
    8000137e:	6105                	addi	sp,sp,32
    80001380:	8082                	ret
    uvmunmap(pagetable, 0, PGROUNDUP(sz) / PGSIZE, 1);
    80001382:	6785                	lui	a5,0x1
    80001384:	17fd                	addi	a5,a5,-1 # fff <_entry-0x7ffff001>
    80001386:	95be                	add	a1,a1,a5
    80001388:	4685                	li	a3,1
    8000138a:	00c5d613          	srli	a2,a1,0xc
    8000138e:	4581                	li	a1,0
    80001390:	e01ff0ef          	jal	80001190 <uvmunmap>
    80001394:	bff9                	j	80001372 <uvmfree+0xe>

0000000080001396 <uvmcopy>:
  pte_t *pte;
  uint64 pa, i;
  uint flags;
  char *mem;

  for (i = 0; i < sz; i += PGSIZE) {
    80001396:	ce49                	beqz	a2,80001430 <uvmcopy+0x9a>
{
    80001398:	715d                	addi	sp,sp,-80
    8000139a:	e486                	sd	ra,72(sp)
    8000139c:	e0a2                	sd	s0,64(sp)
    8000139e:	fc26                	sd	s1,56(sp)
    800013a0:	f84a                	sd	s2,48(sp)
    800013a2:	f44e                	sd	s3,40(sp)
    800013a4:	f052                	sd	s4,32(sp)
    800013a6:	ec56                	sd	s5,24(sp)
    800013a8:	e85a                	sd	s6,16(sp)
    800013aa:	e45e                	sd	s7,8(sp)
    800013ac:	0880                	addi	s0,sp,80
    800013ae:	8aaa                	mv	s5,a0
    800013b0:	8b2e                	mv	s6,a1
    800013b2:	8a32                	mv	s4,a2
  for (i = 0; i < sz; i += PGSIZE) {
    800013b4:	4481                	li	s1,0
    800013b6:	a029                	j	800013c0 <uvmcopy+0x2a>
    800013b8:	6785                	lui	a5,0x1
    800013ba:	94be                	add	s1,s1,a5
    800013bc:	0544fe63          	bgeu	s1,s4,80001418 <uvmcopy+0x82>
    if ((pte = walk(old, i, 0)) == 0)
    800013c0:	4601                	li	a2,0
    800013c2:	85a6                	mv	a1,s1
    800013c4:	8556                	mv	a0,s5
    800013c6:	b27ff0ef          	jal	80000eec <walk>
    800013ca:	d57d                	beqz	a0,800013b8 <uvmcopy+0x22>
      continue; // page table entry hasn't been allocated
    if ((*pte & PTE_V) == 0)
    800013cc:	6118                	ld	a4,0(a0)
    800013ce:	00177793          	andi	a5,a4,1
    800013d2:	d3fd                	beqz	a5,800013b8 <uvmcopy+0x22>
      continue; // physical page hasn't been allocated
    pa = PTE2PA(*pte);
    800013d4:	00a75593          	srli	a1,a4,0xa
    800013d8:	00c59b93          	slli	s7,a1,0xc
    flags = PTE_FLAGS(*pte);
    800013dc:	3ff77913          	andi	s2,a4,1023
    if ((mem = kalloc()) == 0)
    800013e0:	efcff0ef          	jal	80000adc <kalloc>
    800013e4:	89aa                	mv	s3,a0
    800013e6:	c105                	beqz	a0,80001406 <uvmcopy+0x70>
      goto err;
    memmove(mem, (char *)pa, PGSIZE);
    800013e8:	6605                	lui	a2,0x1
    800013ea:	85de                	mv	a1,s7
    800013ec:	8e9ff0ef          	jal	80000cd4 <memmove>
    if (mappages(new, i, PGSIZE, (uint64)mem, flags) != 0) {
    800013f0:	874a                	mv	a4,s2
    800013f2:	86ce                	mv	a3,s3
    800013f4:	6605                	lui	a2,0x1
    800013f6:	85a6                	mv	a1,s1
    800013f8:	855a                	mv	a0,s6
    800013fa:	bcbff0ef          	jal	80000fc4 <mappages>
    800013fe:	dd4d                	beqz	a0,800013b8 <uvmcopy+0x22>
      kfree(mem);
    80001400:	854e                	mv	a0,s3
    80001402:	df8ff0ef          	jal	800009fa <kfree>
    }
  }
  return 0;

err:
  uvmunmap(new, 0, i / PGSIZE, 1);
    80001406:	4685                	li	a3,1
    80001408:	00c4d613          	srli	a2,s1,0xc
    8000140c:	4581                	li	a1,0
    8000140e:	855a                	mv	a0,s6
    80001410:	d81ff0ef          	jal	80001190 <uvmunmap>
  return -1;
    80001414:	557d                	li	a0,-1
    80001416:	a011                	j	8000141a <uvmcopy+0x84>
  return 0;
    80001418:	4501                	li	a0,0
}
    8000141a:	60a6                	ld	ra,72(sp)
    8000141c:	6406                	ld	s0,64(sp)
    8000141e:	74e2                	ld	s1,56(sp)
    80001420:	7942                	ld	s2,48(sp)
    80001422:	79a2                	ld	s3,40(sp)
    80001424:	7a02                	ld	s4,32(sp)
    80001426:	6ae2                	ld	s5,24(sp)
    80001428:	6b42                	ld	s6,16(sp)
    8000142a:	6ba2                	ld	s7,8(sp)
    8000142c:	6161                	addi	sp,sp,80
    8000142e:	8082                	ret
  return 0;
    80001430:	4501                	li	a0,0
}
    80001432:	8082                	ret

0000000080001434 <uvmclear>:

// mark a PTE invalid for user access.
// used by exec for the user stack guard page.
void
uvmclear(pagetable_t pagetable, uint64 va)
{
    80001434:	1141                	addi	sp,sp,-16
    80001436:	e406                	sd	ra,8(sp)
    80001438:	e022                	sd	s0,0(sp)
    8000143a:	0800                	addi	s0,sp,16
  pte_t *pte;

  pte = walk(pagetable, va, 0);
    8000143c:	4601                	li	a2,0
    8000143e:	aafff0ef          	jal	80000eec <walk>
  if (pte == 0)
    80001442:	c901                	beqz	a0,80001452 <uvmclear+0x1e>
    panic("uvmclear");
  *pte &= ~PTE_U;
    80001444:	611c                	ld	a5,0(a0)
    80001446:	9bbd                	andi	a5,a5,-17
    80001448:	e11c                	sd	a5,0(a0)
}
    8000144a:	60a2                	ld	ra,8(sp)
    8000144c:	6402                	ld	s0,0(sp)
    8000144e:	0141                	addi	sp,sp,16
    80001450:	8082                	ret
    panic("uvmclear");
    80001452:	00006517          	auipc	a0,0x6
    80001456:	cf650513          	addi	a0,a0,-778 # 80007148 <etext+0x148>
    8000145a:	b7aff0ef          	jal	800007d4 <panic>

000000008000145e <copyinstr>:
copyinstr(pagetable_t pagetable, char *dst, uint64 srcva, uint64 max)
{
  uint64 n, va0, pa0;
  int got_null = 0;

  while (got_null == 0 && max > 0) {
    8000145e:	c6dd                	beqz	a3,8000150c <copyinstr+0xae>
{
    80001460:	715d                	addi	sp,sp,-80
    80001462:	e486                	sd	ra,72(sp)
    80001464:	e0a2                	sd	s0,64(sp)
    80001466:	fc26                	sd	s1,56(sp)
    80001468:	f84a                	sd	s2,48(sp)
    8000146a:	f44e                	sd	s3,40(sp)
    8000146c:	f052                	sd	s4,32(sp)
    8000146e:	ec56                	sd	s5,24(sp)
    80001470:	e85a                	sd	s6,16(sp)
    80001472:	e45e                	sd	s7,8(sp)
    80001474:	0880                	addi	s0,sp,80
    80001476:	8a2a                	mv	s4,a0
    80001478:	8b2e                	mv	s6,a1
    8000147a:	8bb2                	mv	s7,a2
    8000147c:	8936                	mv	s2,a3
    va0 = PGROUNDDOWN(srcva);
    8000147e:	7afd                	lui	s5,0xfffff
    pa0 = walkaddr(pagetable, va0);
    if (pa0 == 0)
      return -1;
    n = PGSIZE - (srcva - va0);
    80001480:	6985                	lui	s3,0x1
    80001482:	a825                	j	800014ba <copyinstr+0x5c>
      n = max;

    char *p = (char *)(pa0 + (srcva - va0));
    while (n > 0) {
      if (*p == '\0') {
        *dst = '\0';
    80001484:	00078023          	sb	zero,0(a5) # 1000 <_entry-0x7ffff000>
    80001488:	4785                	li	a5,1
      dst++;
    }

    srcva = va0 + PGSIZE;
  }
  if (got_null) {
    8000148a:	37fd                	addiw	a5,a5,-1
    8000148c:	0007851b          	sext.w	a0,a5
    return 0;
  } else {
    return -1;
  }
}
    80001490:	60a6                	ld	ra,72(sp)
    80001492:	6406                	ld	s0,64(sp)
    80001494:	74e2                	ld	s1,56(sp)
    80001496:	7942                	ld	s2,48(sp)
    80001498:	79a2                	ld	s3,40(sp)
    8000149a:	7a02                	ld	s4,32(sp)
    8000149c:	6ae2                	ld	s5,24(sp)
    8000149e:	6b42                	ld	s6,16(sp)
    800014a0:	6ba2                	ld	s7,8(sp)
    800014a2:	6161                	addi	sp,sp,80
    800014a4:	8082                	ret
    800014a6:	fff90713          	addi	a4,s2,-1 # fff <_entry-0x7ffff001>
    800014aa:	9742                	add	a4,a4,a6
      --max;
    800014ac:	40b70933          	sub	s2,a4,a1
    srcva = va0 + PGSIZE;
    800014b0:	01348bb3          	add	s7,s1,s3
  while (got_null == 0 && max > 0) {
    800014b4:	04e58463          	beq	a1,a4,800014fc <copyinstr+0x9e>
{
    800014b8:	8b3e                	mv	s6,a5
    va0 = PGROUNDDOWN(srcva);
    800014ba:	015bf4b3          	and	s1,s7,s5
    pa0 = walkaddr(pagetable, va0);
    800014be:	85a6                	mv	a1,s1
    800014c0:	8552                	mv	a0,s4
    800014c2:	ac5ff0ef          	jal	80000f86 <walkaddr>
    if (pa0 == 0)
    800014c6:	cd0d                	beqz	a0,80001500 <copyinstr+0xa2>
    n = PGSIZE - (srcva - va0);
    800014c8:	417486b3          	sub	a3,s1,s7
    800014cc:	96ce                	add	a3,a3,s3
    if (n > max)
    800014ce:	00d97363          	bgeu	s2,a3,800014d4 <copyinstr+0x76>
    800014d2:	86ca                	mv	a3,s2
    char *p = (char *)(pa0 + (srcva - va0));
    800014d4:	955e                	add	a0,a0,s7
    800014d6:	8d05                	sub	a0,a0,s1
    while (n > 0) {
    800014d8:	c695                	beqz	a3,80001504 <copyinstr+0xa6>
    800014da:	87da                	mv	a5,s6
    800014dc:	885a                	mv	a6,s6
      if (*p == '\0') {
    800014de:	41650633          	sub	a2,a0,s6
    while (n > 0) {
    800014e2:	96da                	add	a3,a3,s6
    800014e4:	85be                	mv	a1,a5
      if (*p == '\0') {
    800014e6:	00f60733          	add	a4,a2,a5
    800014ea:	00074703          	lbu	a4,0(a4)
    800014ee:	db59                	beqz	a4,80001484 <copyinstr+0x26>
        *dst = *p;
    800014f0:	00e78023          	sb	a4,0(a5)
      dst++;
    800014f4:	0785                	addi	a5,a5,1
    while (n > 0) {
    800014f6:	fed797e3          	bne	a5,a3,800014e4 <copyinstr+0x86>
    800014fa:	b775                	j	800014a6 <copyinstr+0x48>
    800014fc:	4781                	li	a5,0
    800014fe:	b771                	j	8000148a <copyinstr+0x2c>
      return -1;
    80001500:	557d                	li	a0,-1
    80001502:	b779                	j	80001490 <copyinstr+0x32>
    srcva = va0 + PGSIZE;
    80001504:	6b85                	lui	s7,0x1
    80001506:	9ba6                	add	s7,s7,s1
    80001508:	87da                	mv	a5,s6
    8000150a:	b77d                	j	800014b8 <copyinstr+0x5a>
  int got_null = 0;
    8000150c:	4781                	li	a5,0
  if (got_null) {
    8000150e:	37fd                	addiw	a5,a5,-1
    80001510:	0007851b          	sext.w	a0,a5
}
    80001514:	8082                	ret

0000000080001516 <ismapped>:
  return mem;
}

int
ismapped(pagetable_t pagetable, uint64 va)
{
    80001516:	1141                	addi	sp,sp,-16
    80001518:	e406                	sd	ra,8(sp)
    8000151a:	e022                	sd	s0,0(sp)
    8000151c:	0800                	addi	s0,sp,16
  pte_t *pte = walk(pagetable, va, 0);
    8000151e:	4601                	li	a2,0
    80001520:	9cdff0ef          	jal	80000eec <walk>
  if (pte == 0) {
    80001524:	c519                	beqz	a0,80001532 <ismapped+0x1c>
    return 0;
  }
  if (*pte & PTE_V) {
    80001526:	6108                	ld	a0,0(a0)
    80001528:	8905                	andi	a0,a0,1
    return 1;
  }
  return 0;
}
    8000152a:	60a2                	ld	ra,8(sp)
    8000152c:	6402                	ld	s0,0(sp)
    8000152e:	0141                	addi	sp,sp,16
    80001530:	8082                	ret
    return 0;
    80001532:	4501                	li	a0,0
    80001534:	bfdd                	j	8000152a <ismapped+0x14>

0000000080001536 <vmfault>:
{
    80001536:	7179                	addi	sp,sp,-48
    80001538:	f406                	sd	ra,40(sp)
    8000153a:	f022                	sd	s0,32(sp)
    8000153c:	ec26                	sd	s1,24(sp)
    8000153e:	e44e                	sd	s3,8(sp)
    80001540:	1800                	addi	s0,sp,48
    80001542:	89aa                	mv	s3,a0
    80001544:	84ae                	mv	s1,a1
  struct proc *p = myproc();
    80001546:	35e000ef          	jal	800018a4 <myproc>
  if (va >= p->sz)
    8000154a:	653c                	ld	a5,72(a0)
    8000154c:	00f4ea63          	bltu	s1,a5,80001560 <vmfault+0x2a>
    return 0;
    80001550:	4981                	li	s3,0
}
    80001552:	854e                	mv	a0,s3
    80001554:	70a2                	ld	ra,40(sp)
    80001556:	7402                	ld	s0,32(sp)
    80001558:	64e2                	ld	s1,24(sp)
    8000155a:	69a2                	ld	s3,8(sp)
    8000155c:	6145                	addi	sp,sp,48
    8000155e:	8082                	ret
    80001560:	e84a                	sd	s2,16(sp)
    80001562:	892a                	mv	s2,a0
  va = PGROUNDDOWN(va);
    80001564:	77fd                	lui	a5,0xfffff
    80001566:	8cfd                	and	s1,s1,a5
  if (ismapped(pagetable, va)) {
    80001568:	85a6                	mv	a1,s1
    8000156a:	854e                	mv	a0,s3
    8000156c:	fabff0ef          	jal	80001516 <ismapped>
    return 0;
    80001570:	4981                	li	s3,0
  if (ismapped(pagetable, va)) {
    80001572:	c119                	beqz	a0,80001578 <vmfault+0x42>
    80001574:	6942                	ld	s2,16(sp)
    80001576:	bff1                	j	80001552 <vmfault+0x1c>
    80001578:	e052                	sd	s4,0(sp)
  mem = (uint64)kalloc();
    8000157a:	d62ff0ef          	jal	80000adc <kalloc>
    8000157e:	8a2a                	mv	s4,a0
  if (mem == 0)
    80001580:	c90d                	beqz	a0,800015b2 <vmfault+0x7c>
  mem = (uint64)kalloc();
    80001582:	89aa                	mv	s3,a0
  memset((void *)mem, 0, PGSIZE);
    80001584:	6605                	lui	a2,0x1
    80001586:	4581                	li	a1,0
    80001588:	ef0ff0ef          	jal	80000c78 <memset>
  if (mappages(p->pagetable, va, PGSIZE, mem, PTE_W | PTE_U | PTE_R) != 0) {
    8000158c:	4759                	li	a4,22
    8000158e:	86d2                	mv	a3,s4
    80001590:	6605                	lui	a2,0x1
    80001592:	85a6                	mv	a1,s1
    80001594:	05093503          	ld	a0,80(s2)
    80001598:	a2dff0ef          	jal	80000fc4 <mappages>
    8000159c:	e501                	bnez	a0,800015a4 <vmfault+0x6e>
    8000159e:	6942                	ld	s2,16(sp)
    800015a0:	6a02                	ld	s4,0(sp)
    800015a2:	bf45                	j	80001552 <vmfault+0x1c>
    kfree((void *)mem);
    800015a4:	8552                	mv	a0,s4
    800015a6:	c54ff0ef          	jal	800009fa <kfree>
    return 0;
    800015aa:	4981                	li	s3,0
    800015ac:	6942                	ld	s2,16(sp)
    800015ae:	6a02                	ld	s4,0(sp)
    800015b0:	b74d                	j	80001552 <vmfault+0x1c>
    800015b2:	6942                	ld	s2,16(sp)
    800015b4:	6a02                	ld	s4,0(sp)
    800015b6:	bf71                	j	80001552 <vmfault+0x1c>

00000000800015b8 <copyout>:
  while (len > 0) {
    800015b8:	c2cd                	beqz	a3,8000165a <copyout+0xa2>
{
    800015ba:	711d                	addi	sp,sp,-96
    800015bc:	ec86                	sd	ra,88(sp)
    800015be:	e8a2                	sd	s0,80(sp)
    800015c0:	e4a6                	sd	s1,72(sp)
    800015c2:	f852                	sd	s4,48(sp)
    800015c4:	f05a                	sd	s6,32(sp)
    800015c6:	ec5e                	sd	s7,24(sp)
    800015c8:	e862                	sd	s8,16(sp)
    800015ca:	1080                	addi	s0,sp,96
    800015cc:	8c2a                	mv	s8,a0
    800015ce:	8b2e                	mv	s6,a1
    800015d0:	8bb2                	mv	s7,a2
    800015d2:	8a36                	mv	s4,a3
    va0 = PGROUNDDOWN(dstva);
    800015d4:	74fd                	lui	s1,0xfffff
    800015d6:	8ced                	and	s1,s1,a1
    if (va0 >= MAXVA)
    800015d8:	57fd                	li	a5,-1
    800015da:	83e9                	srli	a5,a5,0x1a
    800015dc:	0897e163          	bltu	a5,s1,8000165e <copyout+0xa6>
    800015e0:	e0ca                	sd	s2,64(sp)
    800015e2:	fc4e                	sd	s3,56(sp)
    800015e4:	f456                	sd	s5,40(sp)
    800015e6:	e466                	sd	s9,8(sp)
    800015e8:	e06a                	sd	s10,0(sp)
    800015ea:	6d05                	lui	s10,0x1
    800015ec:	8cbe                	mv	s9,a5
    800015ee:	a015                	j	80001612 <copyout+0x5a>
    memmove((void *)(pa0 + (dstva - va0)), src, n);
    800015f0:	409b0533          	sub	a0,s6,s1
    800015f4:	0009861b          	sext.w	a2,s3
    800015f8:	85de                	mv	a1,s7
    800015fa:	954a                	add	a0,a0,s2
    800015fc:	ed8ff0ef          	jal	80000cd4 <memmove>
    len -= n;
    80001600:	413a0a33          	sub	s4,s4,s3
    src += n;
    80001604:	9bce                	add	s7,s7,s3
  while (len > 0) {
    80001606:	040a0363          	beqz	s4,8000164c <copyout+0x94>
    if (va0 >= MAXVA)
    8000160a:	055cec63          	bltu	s9,s5,80001662 <copyout+0xaa>
    8000160e:	84d6                	mv	s1,s5
    80001610:	8b56                	mv	s6,s5
    pa0 = walkaddr(pagetable, va0);
    80001612:	85a6                	mv	a1,s1
    80001614:	8562                	mv	a0,s8
    80001616:	971ff0ef          	jal	80000f86 <walkaddr>
    8000161a:	892a                	mv	s2,a0
    if (pa0 == 0) {
    8000161c:	e901                	bnez	a0,8000162c <copyout+0x74>
      if ((pa0 = vmfault(pagetable, va0, 0)) == 0) {
    8000161e:	4601                	li	a2,0
    80001620:	85a6                	mv	a1,s1
    80001622:	8562                	mv	a0,s8
    80001624:	f13ff0ef          	jal	80001536 <vmfault>
    80001628:	892a                	mv	s2,a0
    8000162a:	c139                	beqz	a0,80001670 <copyout+0xb8>
    pte = walk(pagetable, va0, 0);
    8000162c:	4601                	li	a2,0
    8000162e:	85a6                	mv	a1,s1
    80001630:	8562                	mv	a0,s8
    80001632:	8bbff0ef          	jal	80000eec <walk>
    if ((*pte & PTE_W) == 0)
    80001636:	611c                	ld	a5,0(a0)
    80001638:	8b91                	andi	a5,a5,4
    8000163a:	c3b1                	beqz	a5,8000167e <copyout+0xc6>
    n = PGSIZE - (dstva - va0);
    8000163c:	01a48ab3          	add	s5,s1,s10
    80001640:	416a89b3          	sub	s3,s5,s6
    if (n > len)
    80001644:	fb3a76e3          	bgeu	s4,s3,800015f0 <copyout+0x38>
    80001648:	89d2                	mv	s3,s4
    8000164a:	b75d                	j	800015f0 <copyout+0x38>
  return 0;
    8000164c:	4501                	li	a0,0
    8000164e:	6906                	ld	s2,64(sp)
    80001650:	79e2                	ld	s3,56(sp)
    80001652:	7aa2                	ld	s5,40(sp)
    80001654:	6ca2                	ld	s9,8(sp)
    80001656:	6d02                	ld	s10,0(sp)
    80001658:	a80d                	j	8000168a <copyout+0xd2>
    8000165a:	4501                	li	a0,0
}
    8000165c:	8082                	ret
      return -1;
    8000165e:	557d                	li	a0,-1
    80001660:	a02d                	j	8000168a <copyout+0xd2>
    80001662:	557d                	li	a0,-1
    80001664:	6906                	ld	s2,64(sp)
    80001666:	79e2                	ld	s3,56(sp)
    80001668:	7aa2                	ld	s5,40(sp)
    8000166a:	6ca2                	ld	s9,8(sp)
    8000166c:	6d02                	ld	s10,0(sp)
    8000166e:	a831                	j	8000168a <copyout+0xd2>
        return -1;
    80001670:	557d                	li	a0,-1
    80001672:	6906                	ld	s2,64(sp)
    80001674:	79e2                	ld	s3,56(sp)
    80001676:	7aa2                	ld	s5,40(sp)
    80001678:	6ca2                	ld	s9,8(sp)
    8000167a:	6d02                	ld	s10,0(sp)
    8000167c:	a039                	j	8000168a <copyout+0xd2>
      return -1;
    8000167e:	557d                	li	a0,-1
    80001680:	6906                	ld	s2,64(sp)
    80001682:	79e2                	ld	s3,56(sp)
    80001684:	7aa2                	ld	s5,40(sp)
    80001686:	6ca2                	ld	s9,8(sp)
    80001688:	6d02                	ld	s10,0(sp)
}
    8000168a:	60e6                	ld	ra,88(sp)
    8000168c:	6446                	ld	s0,80(sp)
    8000168e:	64a6                	ld	s1,72(sp)
    80001690:	7a42                	ld	s4,48(sp)
    80001692:	7b02                	ld	s6,32(sp)
    80001694:	6be2                	ld	s7,24(sp)
    80001696:	6c42                	ld	s8,16(sp)
    80001698:	6125                	addi	sp,sp,96
    8000169a:	8082                	ret

000000008000169c <copyin>:
  while (len > 0) {
    8000169c:	c6c9                	beqz	a3,80001726 <copyin+0x8a>
{
    8000169e:	715d                	addi	sp,sp,-80
    800016a0:	e486                	sd	ra,72(sp)
    800016a2:	e0a2                	sd	s0,64(sp)
    800016a4:	fc26                	sd	s1,56(sp)
    800016a6:	f84a                	sd	s2,48(sp)
    800016a8:	f44e                	sd	s3,40(sp)
    800016aa:	f052                	sd	s4,32(sp)
    800016ac:	ec56                	sd	s5,24(sp)
    800016ae:	e85a                	sd	s6,16(sp)
    800016b0:	e45e                	sd	s7,8(sp)
    800016b2:	e062                	sd	s8,0(sp)
    800016b4:	0880                	addi	s0,sp,80
    800016b6:	8baa                	mv	s7,a0
    800016b8:	8aae                	mv	s5,a1
    800016ba:	8932                	mv	s2,a2
    800016bc:	8a36                	mv	s4,a3
    va0 = PGROUNDDOWN(srcva);
    800016be:	7c7d                	lui	s8,0xfffff
    n = PGSIZE - (srcva - va0);
    800016c0:	6b05                	lui	s6,0x1
    800016c2:	a035                	j	800016ee <copyin+0x52>
    800016c4:	412984b3          	sub	s1,s3,s2
    800016c8:	94da                	add	s1,s1,s6
    if (n > len)
    800016ca:	009a7363          	bgeu	s4,s1,800016d0 <copyin+0x34>
    800016ce:	84d2                	mv	s1,s4
    memmove(dst, (void *)(pa0 + (srcva - va0)), n);
    800016d0:	413905b3          	sub	a1,s2,s3
    800016d4:	0004861b          	sext.w	a2,s1
    800016d8:	95aa                	add	a1,a1,a0
    800016da:	8556                	mv	a0,s5
    800016dc:	df8ff0ef          	jal	80000cd4 <memmove>
    len -= n;
    800016e0:	409a0a33          	sub	s4,s4,s1
    dst += n;
    800016e4:	9aa6                	add	s5,s5,s1
    srcva = va0 + PGSIZE;
    800016e6:	01698933          	add	s2,s3,s6
  while (len > 0) {
    800016ea:	020a0163          	beqz	s4,8000170c <copyin+0x70>
    va0 = PGROUNDDOWN(srcva);
    800016ee:	018979b3          	and	s3,s2,s8
    pa0 = walkaddr(pagetable, va0);
    800016f2:	85ce                	mv	a1,s3
    800016f4:	855e                	mv	a0,s7
    800016f6:	891ff0ef          	jal	80000f86 <walkaddr>
    if (pa0 == 0) {
    800016fa:	f569                	bnez	a0,800016c4 <copyin+0x28>
      if ((pa0 = vmfault(pagetable, va0, 0)) == 0) {
    800016fc:	4601                	li	a2,0
    800016fe:	85ce                	mv	a1,s3
    80001700:	855e                	mv	a0,s7
    80001702:	e35ff0ef          	jal	80001536 <vmfault>
    80001706:	fd5d                	bnez	a0,800016c4 <copyin+0x28>
        return -1;
    80001708:	557d                	li	a0,-1
    8000170a:	a011                	j	8000170e <copyin+0x72>
  return 0;
    8000170c:	4501                	li	a0,0
}
    8000170e:	60a6                	ld	ra,72(sp)
    80001710:	6406                	ld	s0,64(sp)
    80001712:	74e2                	ld	s1,56(sp)
    80001714:	7942                	ld	s2,48(sp)
    80001716:	79a2                	ld	s3,40(sp)
    80001718:	7a02                	ld	s4,32(sp)
    8000171a:	6ae2                	ld	s5,24(sp)
    8000171c:	6b42                	ld	s6,16(sp)
    8000171e:	6ba2                	ld	s7,8(sp)
    80001720:	6c02                	ld	s8,0(sp)
    80001722:	6161                	addi	sp,sp,80
    80001724:	8082                	ret
  return 0;
    80001726:	4501                	li	a0,0
}
    80001728:	8082                	ret

000000008000172a <proc_mapstacks>:
// Allocate a page for each process's kernel stack.
// Map it high in memory, followed by an invalid
// guard page.
void
proc_mapstacks(pagetable_t kpgtbl)
{
    8000172a:	7139                	addi	sp,sp,-64
    8000172c:	fc06                	sd	ra,56(sp)
    8000172e:	f822                	sd	s0,48(sp)
    80001730:	f426                	sd	s1,40(sp)
    80001732:	f04a                	sd	s2,32(sp)
    80001734:	ec4e                	sd	s3,24(sp)
    80001736:	e852                	sd	s4,16(sp)
    80001738:	e456                	sd	s5,8(sp)
    8000173a:	e05a                	sd	s6,0(sp)
    8000173c:	0080                	addi	s0,sp,64
    8000173e:	8a2a                	mv	s4,a0
  struct proc *p;

  for (p = proc; p < &proc[NPROC]; p++) {
    80001740:	00011497          	auipc	s1,0x11
    80001744:	fb848493          	addi	s1,s1,-72 # 800126f8 <proc>
    char *pa = kalloc();
    if (pa == 0)
      panic("kalloc");
    uint64 va = KSTACK((int)(p - proc));
    80001748:	8b26                	mv	s6,s1
    8000174a:	04fa5937          	lui	s2,0x4fa5
    8000174e:	fa590913          	addi	s2,s2,-91 # 4fa4fa5 <_entry-0x7b05b05b>
    80001752:	0932                	slli	s2,s2,0xc
    80001754:	fa590913          	addi	s2,s2,-91
    80001758:	0932                	slli	s2,s2,0xc
    8000175a:	fa590913          	addi	s2,s2,-91
    8000175e:	0932                	slli	s2,s2,0xc
    80001760:	fa590913          	addi	s2,s2,-91
    80001764:	040009b7          	lui	s3,0x4000
    80001768:	19fd                	addi	s3,s3,-1 # 3ffffff <_entry-0x7c000001>
    8000176a:	09b2                	slli	s3,s3,0xc
  for (p = proc; p < &proc[NPROC]; p++) {
    8000176c:	00017a97          	auipc	s5,0x17
    80001770:	98ca8a93          	addi	s5,s5,-1652 # 800180f8 <tickslock>
    char *pa = kalloc();
    80001774:	b68ff0ef          	jal	80000adc <kalloc>
    80001778:	862a                	mv	a2,a0
    if (pa == 0)
    8000177a:	cd15                	beqz	a0,800017b6 <proc_mapstacks+0x8c>
    uint64 va = KSTACK((int)(p - proc));
    8000177c:	416485b3          	sub	a1,s1,s6
    80001780:	858d                	srai	a1,a1,0x3
    80001782:	032585b3          	mul	a1,a1,s2
    80001786:	2585                	addiw	a1,a1,1
    80001788:	00d5959b          	slliw	a1,a1,0xd
    kvmmap(kpgtbl, va, (uint64)pa, PGSIZE, PTE_R | PTE_W);
    8000178c:	4719                	li	a4,6
    8000178e:	6685                	lui	a3,0x1
    80001790:	40b985b3          	sub	a1,s3,a1
    80001794:	8552                	mv	a0,s4
    80001796:	8dfff0ef          	jal	80001074 <kvmmap>
  for (p = proc; p < &proc[NPROC]; p++) {
    8000179a:	16848493          	addi	s1,s1,360
    8000179e:	fd549be3          	bne	s1,s5,80001774 <proc_mapstacks+0x4a>
  }
}
    800017a2:	70e2                	ld	ra,56(sp)
    800017a4:	7442                	ld	s0,48(sp)
    800017a6:	74a2                	ld	s1,40(sp)
    800017a8:	7902                	ld	s2,32(sp)
    800017aa:	69e2                	ld	s3,24(sp)
    800017ac:	6a42                	ld	s4,16(sp)
    800017ae:	6aa2                	ld	s5,8(sp)
    800017b0:	6b02                	ld	s6,0(sp)
    800017b2:	6121                	addi	sp,sp,64
    800017b4:	8082                	ret
      panic("kalloc");
    800017b6:	00006517          	auipc	a0,0x6
    800017ba:	9a250513          	addi	a0,a0,-1630 # 80007158 <etext+0x158>
    800017be:	816ff0ef          	jal	800007d4 <panic>

00000000800017c2 <procinit>:

// initialize the proc table.
void
procinit(void)
{
    800017c2:	7139                	addi	sp,sp,-64
    800017c4:	fc06                	sd	ra,56(sp)
    800017c6:	f822                	sd	s0,48(sp)
    800017c8:	f426                	sd	s1,40(sp)
    800017ca:	f04a                	sd	s2,32(sp)
    800017cc:	ec4e                	sd	s3,24(sp)
    800017ce:	e852                	sd	s4,16(sp)
    800017d0:	e456                	sd	s5,8(sp)
    800017d2:	e05a                	sd	s6,0(sp)
    800017d4:	0080                	addi	s0,sp,64
  struct proc *p;

  initlock(&pid_lock, "nextpid");
    800017d6:	00006597          	auipc	a1,0x6
    800017da:	98a58593          	addi	a1,a1,-1654 # 80007160 <etext+0x160>
    800017de:	00011517          	auipc	a0,0x11
    800017e2:	aea50513          	addi	a0,a0,-1302 # 800122c8 <pid_lock>
    800017e6:	b46ff0ef          	jal	80000b2c <initlock>
  initlock(&wait_lock, "wait_lock");
    800017ea:	00006597          	auipc	a1,0x6
    800017ee:	97e58593          	addi	a1,a1,-1666 # 80007168 <etext+0x168>
    800017f2:	00011517          	auipc	a0,0x11
    800017f6:	aee50513          	addi	a0,a0,-1298 # 800122e0 <wait_lock>
    800017fa:	b32ff0ef          	jal	80000b2c <initlock>
  for (p = proc; p < &proc[NPROC]; p++) {
    800017fe:	00011497          	auipc	s1,0x11
    80001802:	efa48493          	addi	s1,s1,-262 # 800126f8 <proc>
    initlock(&p->lock, "proc");
    80001806:	00006b17          	auipc	s6,0x6
    8000180a:	972b0b13          	addi	s6,s6,-1678 # 80007178 <etext+0x178>
    p->state = UNUSED;
    p->kstack = KSTACK((int)(p - proc));
    8000180e:	8aa6                	mv	s5,s1
    80001810:	04fa5937          	lui	s2,0x4fa5
    80001814:	fa590913          	addi	s2,s2,-91 # 4fa4fa5 <_entry-0x7b05b05b>
    80001818:	0932                	slli	s2,s2,0xc
    8000181a:	fa590913          	addi	s2,s2,-91
    8000181e:	0932                	slli	s2,s2,0xc
    80001820:	fa590913          	addi	s2,s2,-91
    80001824:	0932                	slli	s2,s2,0xc
    80001826:	fa590913          	addi	s2,s2,-91
    8000182a:	040009b7          	lui	s3,0x4000
    8000182e:	19fd                	addi	s3,s3,-1 # 3ffffff <_entry-0x7c000001>
    80001830:	09b2                	slli	s3,s3,0xc
  for (p = proc; p < &proc[NPROC]; p++) {
    80001832:	00017a17          	auipc	s4,0x17
    80001836:	8c6a0a13          	addi	s4,s4,-1850 # 800180f8 <tickslock>
    initlock(&p->lock, "proc");
    8000183a:	85da                	mv	a1,s6
    8000183c:	8526                	mv	a0,s1
    8000183e:	aeeff0ef          	jal	80000b2c <initlock>
    p->state = UNUSED;
    80001842:	0004ac23          	sw	zero,24(s1)
    p->kstack = KSTACK((int)(p - proc));
    80001846:	415487b3          	sub	a5,s1,s5
    8000184a:	878d                	srai	a5,a5,0x3
    8000184c:	032787b3          	mul	a5,a5,s2
    80001850:	2785                	addiw	a5,a5,1 # fffffffffffff001 <end+0xffffffff7ffdbb29>
    80001852:	00d7979b          	slliw	a5,a5,0xd
    80001856:	40f987b3          	sub	a5,s3,a5
    8000185a:	e0bc                	sd	a5,64(s1)
  for (p = proc; p < &proc[NPROC]; p++) {
    8000185c:	16848493          	addi	s1,s1,360
    80001860:	fd449de3          	bne	s1,s4,8000183a <procinit+0x78>
  }
}
    80001864:	70e2                	ld	ra,56(sp)
    80001866:	7442                	ld	s0,48(sp)
    80001868:	74a2                	ld	s1,40(sp)
    8000186a:	7902                	ld	s2,32(sp)
    8000186c:	69e2                	ld	s3,24(sp)
    8000186e:	6a42                	ld	s4,16(sp)
    80001870:	6aa2                	ld	s5,8(sp)
    80001872:	6b02                	ld	s6,0(sp)
    80001874:	6121                	addi	sp,sp,64
    80001876:	8082                	ret

0000000080001878 <cpuid>:
// Must be called with interrupts disabled,
// to prevent race with process being moved
// to a different CPU.
int
cpuid()
{
    80001878:	1141                	addi	sp,sp,-16
    8000187a:	e422                	sd	s0,8(sp)
    8000187c:	0800                	addi	s0,sp,16
  asm volatile("mv %0, tp" : "=r"(x));
    8000187e:	8512                	mv	a0,tp
  int id = r_tp();
  return id;
}
    80001880:	2501                	sext.w	a0,a0
    80001882:	6422                	ld	s0,8(sp)
    80001884:	0141                	addi	sp,sp,16
    80001886:	8082                	ret

0000000080001888 <mycpu>:

// Return this CPU's cpu struct.
// Interrupts must be disabled.
struct cpu *
mycpu(void)
{
    80001888:	1141                	addi	sp,sp,-16
    8000188a:	e422                	sd	s0,8(sp)
    8000188c:	0800                	addi	s0,sp,16
    8000188e:	8792                	mv	a5,tp
  int id = cpuid();
  struct cpu *c = &cpus[id];
    80001890:	2781                	sext.w	a5,a5
    80001892:	079e                	slli	a5,a5,0x7
  return c;
}
    80001894:	00011517          	auipc	a0,0x11
    80001898:	a6450513          	addi	a0,a0,-1436 # 800122f8 <cpus>
    8000189c:	953e                	add	a0,a0,a5
    8000189e:	6422                	ld	s0,8(sp)
    800018a0:	0141                	addi	sp,sp,16
    800018a2:	8082                	ret

00000000800018a4 <myproc>:

// Return the current struct proc *, or zero if none.
struct proc *
myproc(void)
{
    800018a4:	1101                	addi	sp,sp,-32
    800018a6:	ec06                	sd	ra,24(sp)
    800018a8:	e822                	sd	s0,16(sp)
    800018aa:	e426                	sd	s1,8(sp)
    800018ac:	1000                	addi	s0,sp,32
  push_off();
    800018ae:	abeff0ef          	jal	80000b6c <push_off>
    800018b2:	8792                	mv	a5,tp
  struct cpu *c = mycpu();
  struct proc *p = c->proc;
    800018b4:	2781                	sext.w	a5,a5
    800018b6:	079e                	slli	a5,a5,0x7
    800018b8:	00011717          	auipc	a4,0x11
    800018bc:	a1070713          	addi	a4,a4,-1520 # 800122c8 <pid_lock>
    800018c0:	97ba                	add	a5,a5,a4
    800018c2:	7b84                	ld	s1,48(a5)
  pop_off();
    800018c4:	b28ff0ef          	jal	80000bec <pop_off>
  return p;
}
    800018c8:	8526                	mv	a0,s1
    800018ca:	60e2                	ld	ra,24(sp)
    800018cc:	6442                	ld	s0,16(sp)
    800018ce:	64a2                	ld	s1,8(sp)
    800018d0:	6105                	addi	sp,sp,32
    800018d2:	8082                	ret

00000000800018d4 <forkret>:

// A fork child's very first scheduling by scheduler()
// will swtch to forkret.
void
forkret(void)
{
    800018d4:	7179                	addi	sp,sp,-48
    800018d6:	f406                	sd	ra,40(sp)
    800018d8:	f022                	sd	s0,32(sp)
    800018da:	ec26                	sd	s1,24(sp)
    800018dc:	1800                	addi	s0,sp,48
  extern char userret[];
  static int first = 1;
  struct proc *p = myproc();
    800018de:	fc7ff0ef          	jal	800018a4 <myproc>
    800018e2:	84aa                	mv	s1,a0

  // Still holding p->lock from scheduler.
  release(&p->lock);
    800018e4:	b5cff0ef          	jal	80000c40 <release>

  if (first) {
    800018e8:	00009797          	auipc	a5,0x9
    800018ec:	8887a783          	lw	a5,-1912(a5) # 8000a170 <first.1>
    800018f0:	cf8d                	beqz	a5,8000192a <forkret+0x56>
    // File system initialization must be run in the context of a
    // regular process (e.g., because it calls sleep), and thus cannot
    // be run from main().
    fsinit(ROOTDEV);
    800018f2:	4505                	li	a0,1
    800018f4:	3b9010ef          	jal	800034ac <fsinit>

    first = 0;
    800018f8:	00009797          	auipc	a5,0x9
    800018fc:	8607ac23          	sw	zero,-1928(a5) # 8000a170 <first.1>
    // ensure other cores see first=0.
    __atomic_thread_fence(__ATOMIC_SEQ_CST);
    80001900:	0330000f          	fence	rw,rw

    // We can invoke kexec() now that file system is initialized.
    // Put the return value (argc) of kexec into a0.
    p->trapframe->a0 = kexec("/init", (char *[]){"/init", 0});
    80001904:	00006517          	auipc	a0,0x6
    80001908:	87c50513          	addi	a0,a0,-1924 # 80007180 <etext+0x180>
    8000190c:	fca43823          	sd	a0,-48(s0)
    80001910:	fc043c23          	sd	zero,-40(s0)
    80001914:	fd040593          	addi	a1,s0,-48
    80001918:	507020ef          	jal	8000461e <kexec>
    8000191c:	6cbc                	ld	a5,88(s1)
    8000191e:	fba8                	sd	a0,112(a5)
    if (p->trapframe->a0 == -1) {
    80001920:	6cbc                	ld	a5,88(s1)
    80001922:	7bb8                	ld	a4,112(a5)
    80001924:	57fd                	li	a5,-1
    80001926:	02f70d63          	beq	a4,a5,80001960 <forkret+0x8c>
      panic("exec");
    }
  }

  // return to user space, mimicing usertrap()'s return.
  prepare_return();
    8000192a:	2bf000ef          	jal	800023e8 <prepare_return>
  uint64 satp = MAKE_SATP(p->pagetable);
    8000192e:	68a8                	ld	a0,80(s1)
    80001930:	8131                	srli	a0,a0,0xc
  uint64 trampoline_userret = TRAMPOLINE + (userret - trampoline);
    80001932:	04000737          	lui	a4,0x4000
    80001936:	177d                	addi	a4,a4,-1 # 3ffffff <_entry-0x7c000001>
    80001938:	0732                	slli	a4,a4,0xc
    8000193a:	00004797          	auipc	a5,0x4
    8000193e:	76278793          	addi	a5,a5,1890 # 8000609c <userret>
    80001942:	00004697          	auipc	a3,0x4
    80001946:	6be68693          	addi	a3,a3,1726 # 80006000 <_trampoline>
    8000194a:	8f95                	sub	a5,a5,a3
    8000194c:	97ba                	add	a5,a5,a4
  ((void (*)(uint64))trampoline_userret)(satp);
    8000194e:	577d                	li	a4,-1
    80001950:	177e                	slli	a4,a4,0x3f
    80001952:	8d59                	or	a0,a0,a4
    80001954:	9782                	jalr	a5
}
    80001956:	70a2                	ld	ra,40(sp)
    80001958:	7402                	ld	s0,32(sp)
    8000195a:	64e2                	ld	s1,24(sp)
    8000195c:	6145                	addi	sp,sp,48
    8000195e:	8082                	ret
      panic("exec");
    80001960:	00006517          	auipc	a0,0x6
    80001964:	82850513          	addi	a0,a0,-2008 # 80007188 <etext+0x188>
    80001968:	e6dfe0ef          	jal	800007d4 <panic>

000000008000196c <allocpid>:
{
    8000196c:	1101                	addi	sp,sp,-32
    8000196e:	ec06                	sd	ra,24(sp)
    80001970:	e822                	sd	s0,16(sp)
    80001972:	e426                	sd	s1,8(sp)
    80001974:	e04a                	sd	s2,0(sp)
    80001976:	1000                	addi	s0,sp,32
  acquire(&pid_lock);
    80001978:	00011917          	auipc	s2,0x11
    8000197c:	95090913          	addi	s2,s2,-1712 # 800122c8 <pid_lock>
    80001980:	854a                	mv	a0,s2
    80001982:	a2aff0ef          	jal	80000bac <acquire>
  pid = nextpid;
    80001986:	00008797          	auipc	a5,0x8
    8000198a:	7ee78793          	addi	a5,a5,2030 # 8000a174 <nextpid>
    8000198e:	4384                	lw	s1,0(a5)
  nextpid = nextpid + 1;
    80001990:	0014871b          	addiw	a4,s1,1
    80001994:	c398                	sw	a4,0(a5)
  release(&pid_lock);
    80001996:	854a                	mv	a0,s2
    80001998:	aa8ff0ef          	jal	80000c40 <release>
}
    8000199c:	8526                	mv	a0,s1
    8000199e:	60e2                	ld	ra,24(sp)
    800019a0:	6442                	ld	s0,16(sp)
    800019a2:	64a2                	ld	s1,8(sp)
    800019a4:	6902                	ld	s2,0(sp)
    800019a6:	6105                	addi	sp,sp,32
    800019a8:	8082                	ret

00000000800019aa <proc_pagetable>:
{
    800019aa:	1101                	addi	sp,sp,-32
    800019ac:	ec06                	sd	ra,24(sp)
    800019ae:	e822                	sd	s0,16(sp)
    800019b0:	e426                	sd	s1,8(sp)
    800019b2:	e04a                	sd	s2,0(sp)
    800019b4:	1000                	addi	s0,sp,32
    800019b6:	892a                	mv	s2,a0
  pagetable = uvmcreate();
    800019b8:	fb2ff0ef          	jal	8000116a <uvmcreate>
    800019bc:	84aa                	mv	s1,a0
  if (pagetable == 0)
    800019be:	cd05                	beqz	a0,800019f6 <proc_pagetable+0x4c>
  if (mappages(pagetable, TRAMPOLINE, PGSIZE, (uint64)trampoline,
    800019c0:	4729                	li	a4,10
    800019c2:	00004697          	auipc	a3,0x4
    800019c6:	63e68693          	addi	a3,a3,1598 # 80006000 <_trampoline>
    800019ca:	6605                	lui	a2,0x1
    800019cc:	040005b7          	lui	a1,0x4000
    800019d0:	15fd                	addi	a1,a1,-1 # 3ffffff <_entry-0x7c000001>
    800019d2:	05b2                	slli	a1,a1,0xc
    800019d4:	df0ff0ef          	jal	80000fc4 <mappages>
    800019d8:	02054663          	bltz	a0,80001a04 <proc_pagetable+0x5a>
  if (mappages(pagetable, TRAPFRAME, PGSIZE, (uint64)(p->trapframe),
    800019dc:	4719                	li	a4,6
    800019de:	05893683          	ld	a3,88(s2)
    800019e2:	6605                	lui	a2,0x1
    800019e4:	020005b7          	lui	a1,0x2000
    800019e8:	15fd                	addi	a1,a1,-1 # 1ffffff <_entry-0x7e000001>
    800019ea:	05b6                	slli	a1,a1,0xd
    800019ec:	8526                	mv	a0,s1
    800019ee:	dd6ff0ef          	jal	80000fc4 <mappages>
    800019f2:	00054f63          	bltz	a0,80001a10 <proc_pagetable+0x66>
}
    800019f6:	8526                	mv	a0,s1
    800019f8:	60e2                	ld	ra,24(sp)
    800019fa:	6442                	ld	s0,16(sp)
    800019fc:	64a2                	ld	s1,8(sp)
    800019fe:	6902                	ld	s2,0(sp)
    80001a00:	6105                	addi	sp,sp,32
    80001a02:	8082                	ret
    uvmfree(pagetable, 0);
    80001a04:	4581                	li	a1,0
    80001a06:	8526                	mv	a0,s1
    80001a08:	95dff0ef          	jal	80001364 <uvmfree>
    return 0;
    80001a0c:	4481                	li	s1,0
    80001a0e:	b7e5                	j	800019f6 <proc_pagetable+0x4c>
    uvmunmap(pagetable, TRAMPOLINE, 1, 0);
    80001a10:	4681                	li	a3,0
    80001a12:	4605                	li	a2,1
    80001a14:	040005b7          	lui	a1,0x4000
    80001a18:	15fd                	addi	a1,a1,-1 # 3ffffff <_entry-0x7c000001>
    80001a1a:	05b2                	slli	a1,a1,0xc
    80001a1c:	8526                	mv	a0,s1
    80001a1e:	f72ff0ef          	jal	80001190 <uvmunmap>
    uvmfree(pagetable, 0);
    80001a22:	4581                	li	a1,0
    80001a24:	8526                	mv	a0,s1
    80001a26:	93fff0ef          	jal	80001364 <uvmfree>
    return 0;
    80001a2a:	4481                	li	s1,0
    80001a2c:	b7e9                	j	800019f6 <proc_pagetable+0x4c>

0000000080001a2e <proc_freepagetable>:
{
    80001a2e:	1101                	addi	sp,sp,-32
    80001a30:	ec06                	sd	ra,24(sp)
    80001a32:	e822                	sd	s0,16(sp)
    80001a34:	e426                	sd	s1,8(sp)
    80001a36:	e04a                	sd	s2,0(sp)
    80001a38:	1000                	addi	s0,sp,32
    80001a3a:	84aa                	mv	s1,a0
    80001a3c:	892e                	mv	s2,a1
  uvmunmap(pagetable, TRAMPOLINE, 1, 0);
    80001a3e:	4681                	li	a3,0
    80001a40:	4605                	li	a2,1
    80001a42:	040005b7          	lui	a1,0x4000
    80001a46:	15fd                	addi	a1,a1,-1 # 3ffffff <_entry-0x7c000001>
    80001a48:	05b2                	slli	a1,a1,0xc
    80001a4a:	f46ff0ef          	jal	80001190 <uvmunmap>
  uvmunmap(pagetable, TRAPFRAME, 1, 0);
    80001a4e:	4681                	li	a3,0
    80001a50:	4605                	li	a2,1
    80001a52:	020005b7          	lui	a1,0x2000
    80001a56:	15fd                	addi	a1,a1,-1 # 1ffffff <_entry-0x7e000001>
    80001a58:	05b6                	slli	a1,a1,0xd
    80001a5a:	8526                	mv	a0,s1
    80001a5c:	f34ff0ef          	jal	80001190 <uvmunmap>
  uvmfree(pagetable, sz);
    80001a60:	85ca                	mv	a1,s2
    80001a62:	8526                	mv	a0,s1
    80001a64:	901ff0ef          	jal	80001364 <uvmfree>
}
    80001a68:	60e2                	ld	ra,24(sp)
    80001a6a:	6442                	ld	s0,16(sp)
    80001a6c:	64a2                	ld	s1,8(sp)
    80001a6e:	6902                	ld	s2,0(sp)
    80001a70:	6105                	addi	sp,sp,32
    80001a72:	8082                	ret

0000000080001a74 <freeproc>:
{
    80001a74:	1101                	addi	sp,sp,-32
    80001a76:	ec06                	sd	ra,24(sp)
    80001a78:	e822                	sd	s0,16(sp)
    80001a7a:	e426                	sd	s1,8(sp)
    80001a7c:	1000                	addi	s0,sp,32
    80001a7e:	84aa                	mv	s1,a0
  if (p->trapframe)
    80001a80:	6d28                	ld	a0,88(a0)
    80001a82:	c119                	beqz	a0,80001a88 <freeproc+0x14>
    kfree((void *)p->trapframe);
    80001a84:	f77fe0ef          	jal	800009fa <kfree>
  p->trapframe = 0;
    80001a88:	0404bc23          	sd	zero,88(s1)
  if (p->pagetable)
    80001a8c:	68a8                	ld	a0,80(s1)
    80001a8e:	c501                	beqz	a0,80001a96 <freeproc+0x22>
    proc_freepagetable(p->pagetable, p->sz);
    80001a90:	64ac                	ld	a1,72(s1)
    80001a92:	f9dff0ef          	jal	80001a2e <proc_freepagetable>
  p->pagetable = 0;
    80001a96:	0404b823          	sd	zero,80(s1)
  p->sz = 0;
    80001a9a:	0404b423          	sd	zero,72(s1)
  p->pid = 0;
    80001a9e:	0204a823          	sw	zero,48(s1)
  p->parent = 0;
    80001aa2:	0204bc23          	sd	zero,56(s1)
  p->name[0] = 0;
    80001aa6:	14048c23          	sb	zero,344(s1)
  p->chan = 0;
    80001aaa:	0204b023          	sd	zero,32(s1)
  p->killed = 0;
    80001aae:	0204a423          	sw	zero,40(s1)
  p->xstate = 0;
    80001ab2:	0204a623          	sw	zero,44(s1)
  p->state = UNUSED;
    80001ab6:	0004ac23          	sw	zero,24(s1)
}
    80001aba:	60e2                	ld	ra,24(sp)
    80001abc:	6442                	ld	s0,16(sp)
    80001abe:	64a2                	ld	s1,8(sp)
    80001ac0:	6105                	addi	sp,sp,32
    80001ac2:	8082                	ret

0000000080001ac4 <allocproc>:
{
    80001ac4:	1101                	addi	sp,sp,-32
    80001ac6:	ec06                	sd	ra,24(sp)
    80001ac8:	e822                	sd	s0,16(sp)
    80001aca:	e426                	sd	s1,8(sp)
    80001acc:	e04a                	sd	s2,0(sp)
    80001ace:	1000                	addi	s0,sp,32
  for (p = proc; p < &proc[NPROC]; p++) {
    80001ad0:	00011497          	auipc	s1,0x11
    80001ad4:	c2848493          	addi	s1,s1,-984 # 800126f8 <proc>
    80001ad8:	00016917          	auipc	s2,0x16
    80001adc:	62090913          	addi	s2,s2,1568 # 800180f8 <tickslock>
    acquire(&p->lock);
    80001ae0:	8526                	mv	a0,s1
    80001ae2:	8caff0ef          	jal	80000bac <acquire>
    if (p->state == UNUSED) {
    80001ae6:	4c9c                	lw	a5,24(s1)
    80001ae8:	cb91                	beqz	a5,80001afc <allocproc+0x38>
      release(&p->lock);
    80001aea:	8526                	mv	a0,s1
    80001aec:	954ff0ef          	jal	80000c40 <release>
  for (p = proc; p < &proc[NPROC]; p++) {
    80001af0:	16848493          	addi	s1,s1,360
    80001af4:	ff2496e3          	bne	s1,s2,80001ae0 <allocproc+0x1c>
  return 0;
    80001af8:	4481                	li	s1,0
    80001afa:	a089                	j	80001b3c <allocproc+0x78>
  p->pid = allocpid();
    80001afc:	e71ff0ef          	jal	8000196c <allocpid>
    80001b00:	d888                	sw	a0,48(s1)
  p->state = USED;
    80001b02:	4785                	li	a5,1
    80001b04:	cc9c                	sw	a5,24(s1)
  if ((p->trapframe = (struct trapframe *)kalloc()) == 0) {
    80001b06:	fd7fe0ef          	jal	80000adc <kalloc>
    80001b0a:	892a                	mv	s2,a0
    80001b0c:	eca8                	sd	a0,88(s1)
    80001b0e:	cd15                	beqz	a0,80001b4a <allocproc+0x86>
  p->pagetable = proc_pagetable(p);
    80001b10:	8526                	mv	a0,s1
    80001b12:	e99ff0ef          	jal	800019aa <proc_pagetable>
    80001b16:	892a                	mv	s2,a0
    80001b18:	e8a8                	sd	a0,80(s1)
  if (p->pagetable == 0) {
    80001b1a:	c121                	beqz	a0,80001b5a <allocproc+0x96>
  memset(&p->context, 0, sizeof(p->context));
    80001b1c:	07000613          	li	a2,112
    80001b20:	4581                	li	a1,0
    80001b22:	06048513          	addi	a0,s1,96
    80001b26:	952ff0ef          	jal	80000c78 <memset>
  p->context.ra = (uint64)forkret;
    80001b2a:	00000797          	auipc	a5,0x0
    80001b2e:	daa78793          	addi	a5,a5,-598 # 800018d4 <forkret>
    80001b32:	f0bc                	sd	a5,96(s1)
  p->context.sp = p->kstack + PGSIZE;
    80001b34:	60bc                	ld	a5,64(s1)
    80001b36:	6705                	lui	a4,0x1
    80001b38:	97ba                	add	a5,a5,a4
    80001b3a:	f4bc                	sd	a5,104(s1)
}
    80001b3c:	8526                	mv	a0,s1
    80001b3e:	60e2                	ld	ra,24(sp)
    80001b40:	6442                	ld	s0,16(sp)
    80001b42:	64a2                	ld	s1,8(sp)
    80001b44:	6902                	ld	s2,0(sp)
    80001b46:	6105                	addi	sp,sp,32
    80001b48:	8082                	ret
    freeproc(p);
    80001b4a:	8526                	mv	a0,s1
    80001b4c:	f29ff0ef          	jal	80001a74 <freeproc>
    release(&p->lock);
    80001b50:	8526                	mv	a0,s1
    80001b52:	8eeff0ef          	jal	80000c40 <release>
    return 0;
    80001b56:	84ca                	mv	s1,s2
    80001b58:	b7d5                	j	80001b3c <allocproc+0x78>
    freeproc(p);
    80001b5a:	8526                	mv	a0,s1
    80001b5c:	f19ff0ef          	jal	80001a74 <freeproc>
    release(&p->lock);
    80001b60:	8526                	mv	a0,s1
    80001b62:	8deff0ef          	jal	80000c40 <release>
    return 0;
    80001b66:	84ca                	mv	s1,s2
    80001b68:	bfd1                	j	80001b3c <allocproc+0x78>

0000000080001b6a <userinit>:
{
    80001b6a:	1101                	addi	sp,sp,-32
    80001b6c:	ec06                	sd	ra,24(sp)
    80001b6e:	e822                	sd	s0,16(sp)
    80001b70:	e426                	sd	s1,8(sp)
    80001b72:	1000                	addi	s0,sp,32
  p = allocproc();
    80001b74:	f51ff0ef          	jal	80001ac4 <allocproc>
    80001b78:	84aa                	mv	s1,a0
  initproc = p;
    80001b7a:	00008797          	auipc	a5,0x8
    80001b7e:	64a7b323          	sd	a0,1606(a5) # 8000a1c0 <initproc>
  p->cwd = namei("/");
    80001b82:	00005517          	auipc	a0,0x5
    80001b86:	60e50513          	addi	a0,a0,1550 # 80007190 <etext+0x190>
    80001b8a:	645010ef          	jal	800039ce <namei>
    80001b8e:	14a4b823          	sd	a0,336(s1)
  p->state = RUNNABLE;
    80001b92:	478d                	li	a5,3
    80001b94:	cc9c                	sw	a5,24(s1)
  release(&p->lock);
    80001b96:	8526                	mv	a0,s1
    80001b98:	8a8ff0ef          	jal	80000c40 <release>
}
    80001b9c:	60e2                	ld	ra,24(sp)
    80001b9e:	6442                	ld	s0,16(sp)
    80001ba0:	64a2                	ld	s1,8(sp)
    80001ba2:	6105                	addi	sp,sp,32
    80001ba4:	8082                	ret

0000000080001ba6 <growproc>:
{
    80001ba6:	1101                	addi	sp,sp,-32
    80001ba8:	ec06                	sd	ra,24(sp)
    80001baa:	e822                	sd	s0,16(sp)
    80001bac:	e426                	sd	s1,8(sp)
    80001bae:	e04a                	sd	s2,0(sp)
    80001bb0:	1000                	addi	s0,sp,32
    80001bb2:	84aa                	mv	s1,a0
  struct proc *p = myproc();
    80001bb4:	cf1ff0ef          	jal	800018a4 <myproc>
    80001bb8:	892a                	mv	s2,a0
  sz = p->sz;
    80001bba:	652c                	ld	a1,72(a0)
  if (n > 0) {
    80001bbc:	02905963          	blez	s1,80001bee <growproc+0x48>
    if (sz + n > TRAPFRAME) {
    80001bc0:	00b48633          	add	a2,s1,a1
    80001bc4:	020007b7          	lui	a5,0x2000
    80001bc8:	17fd                	addi	a5,a5,-1 # 1ffffff <_entry-0x7e000001>
    80001bca:	07b6                	slli	a5,a5,0xd
    80001bcc:	02c7ea63          	bltu	a5,a2,80001c00 <growproc+0x5a>
    if ((sz = uvmalloc(p->pagetable, sz, sz + n, PTE_W)) == 0) {
    80001bd0:	4691                	li	a3,4
    80001bd2:	6928                	ld	a0,80(a0)
    80001bd4:	e8aff0ef          	jal	8000125e <uvmalloc>
    80001bd8:	85aa                	mv	a1,a0
    80001bda:	c50d                	beqz	a0,80001c04 <growproc+0x5e>
  p->sz = sz;
    80001bdc:	04b93423          	sd	a1,72(s2)
  return 0;
    80001be0:	4501                	li	a0,0
}
    80001be2:	60e2                	ld	ra,24(sp)
    80001be4:	6442                	ld	s0,16(sp)
    80001be6:	64a2                	ld	s1,8(sp)
    80001be8:	6902                	ld	s2,0(sp)
    80001bea:	6105                	addi	sp,sp,32
    80001bec:	8082                	ret
  } else if (n < 0) {
    80001bee:	fe04d7e3          	bgez	s1,80001bdc <growproc+0x36>
    sz = uvmdealloc(p->pagetable, sz, sz + n);
    80001bf2:	00b48633          	add	a2,s1,a1
    80001bf6:	6928                	ld	a0,80(a0)
    80001bf8:	e22ff0ef          	jal	8000121a <uvmdealloc>
    80001bfc:	85aa                	mv	a1,a0
    80001bfe:	bff9                	j	80001bdc <growproc+0x36>
      return -1;
    80001c00:	557d                	li	a0,-1
    80001c02:	b7c5                	j	80001be2 <growproc+0x3c>
      return -1;
    80001c04:	557d                	li	a0,-1
    80001c06:	bff1                	j	80001be2 <growproc+0x3c>

0000000080001c08 <kfork>:
{
    80001c08:	7139                	addi	sp,sp,-64
    80001c0a:	fc06                	sd	ra,56(sp)
    80001c0c:	f822                	sd	s0,48(sp)
    80001c0e:	f04a                	sd	s2,32(sp)
    80001c10:	e456                	sd	s5,8(sp)
    80001c12:	0080                	addi	s0,sp,64
  struct proc *p = myproc();
    80001c14:	c91ff0ef          	jal	800018a4 <myproc>
    80001c18:	8aaa                	mv	s5,a0
  if ((np = allocproc()) == 0) {
    80001c1a:	eabff0ef          	jal	80001ac4 <allocproc>
    80001c1e:	0e050a63          	beqz	a0,80001d12 <kfork+0x10a>
    80001c22:	e852                	sd	s4,16(sp)
    80001c24:	8a2a                	mv	s4,a0
  if (uvmcopy(p->pagetable, np->pagetable, p->sz) < 0) {
    80001c26:	048ab603          	ld	a2,72(s5)
    80001c2a:	692c                	ld	a1,80(a0)
    80001c2c:	050ab503          	ld	a0,80(s5)
    80001c30:	f66ff0ef          	jal	80001396 <uvmcopy>
    80001c34:	04054a63          	bltz	a0,80001c88 <kfork+0x80>
    80001c38:	f426                	sd	s1,40(sp)
    80001c3a:	ec4e                	sd	s3,24(sp)
  np->sz = p->sz;
    80001c3c:	048ab783          	ld	a5,72(s5)
    80001c40:	04fa3423          	sd	a5,72(s4)
  *(np->trapframe) = *(p->trapframe);
    80001c44:	058ab683          	ld	a3,88(s5)
    80001c48:	87b6                	mv	a5,a3
    80001c4a:	058a3703          	ld	a4,88(s4)
    80001c4e:	12068693          	addi	a3,a3,288
    80001c52:	0007b803          	ld	a6,0(a5)
    80001c56:	6788                	ld	a0,8(a5)
    80001c58:	6b8c                	ld	a1,16(a5)
    80001c5a:	6f90                	ld	a2,24(a5)
    80001c5c:	01073023          	sd	a6,0(a4) # 1000 <_entry-0x7ffff000>
    80001c60:	e708                	sd	a0,8(a4)
    80001c62:	eb0c                	sd	a1,16(a4)
    80001c64:	ef10                	sd	a2,24(a4)
    80001c66:	02078793          	addi	a5,a5,32
    80001c6a:	02070713          	addi	a4,a4,32
    80001c6e:	fed792e3          	bne	a5,a3,80001c52 <kfork+0x4a>
  np->trapframe->a0 = 0;
    80001c72:	058a3783          	ld	a5,88(s4)
    80001c76:	0607b823          	sd	zero,112(a5)
  for (i = 0; i < NOFILE; i++)
    80001c7a:	0d0a8493          	addi	s1,s5,208
    80001c7e:	0d0a0913          	addi	s2,s4,208
    80001c82:	150a8993          	addi	s3,s5,336
    80001c86:	a831                	j	80001ca2 <kfork+0x9a>
    freeproc(np);
    80001c88:	8552                	mv	a0,s4
    80001c8a:	debff0ef          	jal	80001a74 <freeproc>
    release(&np->lock);
    80001c8e:	8552                	mv	a0,s4
    80001c90:	fb1fe0ef          	jal	80000c40 <release>
    return -1;
    80001c94:	597d                	li	s2,-1
    80001c96:	6a42                	ld	s4,16(sp)
    80001c98:	a0b5                	j	80001d04 <kfork+0xfc>
  for (i = 0; i < NOFILE; i++)
    80001c9a:	04a1                	addi	s1,s1,8
    80001c9c:	0921                	addi	s2,s2,8
    80001c9e:	01348963          	beq	s1,s3,80001cb0 <kfork+0xa8>
    if (p->ofile[i])
    80001ca2:	6088                	ld	a0,0(s1)
    80001ca4:	d97d                	beqz	a0,80001c9a <kfork+0x92>
      np->ofile[i] = filedup(p->ofile[i]);
    80001ca6:	32a020ef          	jal	80003fd0 <filedup>
    80001caa:	00a93023          	sd	a0,0(s2)
    80001cae:	b7f5                	j	80001c9a <kfork+0x92>
  np->cwd = idup(p->cwd);
    80001cb0:	150ab503          	ld	a0,336(s5)
    80001cb4:	4ce010ef          	jal	80003182 <idup>
    80001cb8:	14aa3823          	sd	a0,336(s4)
  safestrcpy(np->name, p->name, sizeof(p->name));
    80001cbc:	4641                	li	a2,16
    80001cbe:	158a8593          	addi	a1,s5,344
    80001cc2:	158a0513          	addi	a0,s4,344
    80001cc6:	8f0ff0ef          	jal	80000db6 <safestrcpy>
  pid = np->pid;
    80001cca:	030a2903          	lw	s2,48(s4)
  release(&np->lock);
    80001cce:	8552                	mv	a0,s4
    80001cd0:	f71fe0ef          	jal	80000c40 <release>
  acquire(&wait_lock);
    80001cd4:	00010497          	auipc	s1,0x10
    80001cd8:	60c48493          	addi	s1,s1,1548 # 800122e0 <wait_lock>
    80001cdc:	8526                	mv	a0,s1
    80001cde:	ecffe0ef          	jal	80000bac <acquire>
  np->parent = p;
    80001ce2:	035a3c23          	sd	s5,56(s4)
  release(&wait_lock);
    80001ce6:	8526                	mv	a0,s1
    80001ce8:	f59fe0ef          	jal	80000c40 <release>
  acquire(&np->lock);
    80001cec:	8552                	mv	a0,s4
    80001cee:	ebffe0ef          	jal	80000bac <acquire>
  np->state = RUNNABLE;
    80001cf2:	478d                	li	a5,3
    80001cf4:	00fa2c23          	sw	a5,24(s4)
  release(&np->lock);
    80001cf8:	8552                	mv	a0,s4
    80001cfa:	f47fe0ef          	jal	80000c40 <release>
  return pid;
    80001cfe:	74a2                	ld	s1,40(sp)
    80001d00:	69e2                	ld	s3,24(sp)
    80001d02:	6a42                	ld	s4,16(sp)
}
    80001d04:	854a                	mv	a0,s2
    80001d06:	70e2                	ld	ra,56(sp)
    80001d08:	7442                	ld	s0,48(sp)
    80001d0a:	7902                	ld	s2,32(sp)
    80001d0c:	6aa2                	ld	s5,8(sp)
    80001d0e:	6121                	addi	sp,sp,64
    80001d10:	8082                	ret
    return -1;
    80001d12:	597d                	li	s2,-1
    80001d14:	bfc5                	j	80001d04 <kfork+0xfc>

0000000080001d16 <scheduler>:
{
    80001d16:	715d                	addi	sp,sp,-80
    80001d18:	e486                	sd	ra,72(sp)
    80001d1a:	e0a2                	sd	s0,64(sp)
    80001d1c:	fc26                	sd	s1,56(sp)
    80001d1e:	f84a                	sd	s2,48(sp)
    80001d20:	f44e                	sd	s3,40(sp)
    80001d22:	f052                	sd	s4,32(sp)
    80001d24:	ec56                	sd	s5,24(sp)
    80001d26:	e85a                	sd	s6,16(sp)
    80001d28:	e45e                	sd	s7,8(sp)
    80001d2a:	e062                	sd	s8,0(sp)
    80001d2c:	0880                	addi	s0,sp,80
    80001d2e:	8792                	mv	a5,tp
  int id = r_tp();
    80001d30:	2781                	sext.w	a5,a5
  c->proc = 0;
    80001d32:	00779b13          	slli	s6,a5,0x7
    80001d36:	00010717          	auipc	a4,0x10
    80001d3a:	59270713          	addi	a4,a4,1426 # 800122c8 <pid_lock>
    80001d3e:	975a                	add	a4,a4,s6
    80001d40:	02073823          	sd	zero,48(a4)
        swtch(&c->context, &p->context);
    80001d44:	00010717          	auipc	a4,0x10
    80001d48:	5bc70713          	addi	a4,a4,1468 # 80012300 <cpus+0x8>
    80001d4c:	9b3a                	add	s6,s6,a4
        p->state = RUNNING;
    80001d4e:	4c11                	li	s8,4
        c->proc = p;
    80001d50:	079e                	slli	a5,a5,0x7
    80001d52:	00010a17          	auipc	s4,0x10
    80001d56:	576a0a13          	addi	s4,s4,1398 # 800122c8 <pid_lock>
    80001d5a:	9a3e                	add	s4,s4,a5
        found = 1;
    80001d5c:	4b85                	li	s7,1
    for (p = proc; p < &proc[NPROC]; p++) {
    80001d5e:	00016997          	auipc	s3,0x16
    80001d62:	39a98993          	addi	s3,s3,922 # 800180f8 <tickslock>
    80001d66:	a83d                	j	80001da4 <scheduler+0x8e>
      release(&p->lock);
    80001d68:	8526                	mv	a0,s1
    80001d6a:	ed7fe0ef          	jal	80000c40 <release>
    for (p = proc; p < &proc[NPROC]; p++) {
    80001d6e:	16848493          	addi	s1,s1,360
    80001d72:	03348563          	beq	s1,s3,80001d9c <scheduler+0x86>
      acquire(&p->lock);
    80001d76:	8526                	mv	a0,s1
    80001d78:	e35fe0ef          	jal	80000bac <acquire>
      if (p->state == RUNNABLE) {
    80001d7c:	4c9c                	lw	a5,24(s1)
    80001d7e:	ff2795e3          	bne	a5,s2,80001d68 <scheduler+0x52>
        p->state = RUNNING;
    80001d82:	0184ac23          	sw	s8,24(s1)
        c->proc = p;
    80001d86:	029a3823          	sd	s1,48(s4)
        swtch(&c->context, &p->context);
    80001d8a:	06048593          	addi	a1,s1,96
    80001d8e:	855a                	mv	a0,s6
    80001d90:	5b2000ef          	jal	80002342 <swtch>
        c->proc = 0;
    80001d94:	020a3823          	sd	zero,48(s4)
        found = 1;
    80001d98:	8ade                	mv	s5,s7
    80001d9a:	b7f9                	j	80001d68 <scheduler+0x52>
    if (found == 0) {
    80001d9c:	000a9463          	bnez	s5,80001da4 <scheduler+0x8e>
      asm volatile("wfi");
    80001da0:	10500073          	wfi
  asm volatile("csrr %0, sstatus" : "=r"(x));
    80001da4:	100027f3          	csrr	a5,sstatus
  w_sstatus(r_sstatus() | SSTATUS_SIE);
    80001da8:	0027e793          	ori	a5,a5,2
  asm volatile("csrw sstatus, %0" : : "r"(x));
    80001dac:	10079073          	csrw	sstatus,a5
  asm volatile("csrr %0, sstatus" : "=r"(x));
    80001db0:	100027f3          	csrr	a5,sstatus
  w_sstatus(r_sstatus() & ~SSTATUS_SIE);
    80001db4:	9bf5                	andi	a5,a5,-3
  asm volatile("csrw sstatus, %0" : : "r"(x));
    80001db6:	10079073          	csrw	sstatus,a5
    int found = 0;
    80001dba:	4a81                	li	s5,0
    for (p = proc; p < &proc[NPROC]; p++) {
    80001dbc:	00011497          	auipc	s1,0x11
    80001dc0:	93c48493          	addi	s1,s1,-1732 # 800126f8 <proc>
      if (p->state == RUNNABLE) {
    80001dc4:	490d                	li	s2,3
    80001dc6:	bf45                	j	80001d76 <scheduler+0x60>

0000000080001dc8 <sched>:
{
    80001dc8:	7179                	addi	sp,sp,-48
    80001dca:	f406                	sd	ra,40(sp)
    80001dcc:	f022                	sd	s0,32(sp)
    80001dce:	ec26                	sd	s1,24(sp)
    80001dd0:	e84a                	sd	s2,16(sp)
    80001dd2:	e44e                	sd	s3,8(sp)
    80001dd4:	1800                	addi	s0,sp,48
  struct proc *p = myproc();
    80001dd6:	acfff0ef          	jal	800018a4 <myproc>
    80001dda:	84aa                	mv	s1,a0
  if (!holding(&p->lock))
    80001ddc:	d67fe0ef          	jal	80000b42 <holding>
    80001de0:	c92d                	beqz	a0,80001e52 <sched+0x8a>
  asm volatile("mv %0, tp" : "=r"(x));
    80001de2:	8792                	mv	a5,tp
  if (mycpu()->noff != 1)
    80001de4:	2781                	sext.w	a5,a5
    80001de6:	079e                	slli	a5,a5,0x7
    80001de8:	00010717          	auipc	a4,0x10
    80001dec:	4e070713          	addi	a4,a4,1248 # 800122c8 <pid_lock>
    80001df0:	97ba                	add	a5,a5,a4
    80001df2:	0a87a703          	lw	a4,168(a5)
    80001df6:	4785                	li	a5,1
    80001df8:	06f71363          	bne	a4,a5,80001e5e <sched+0x96>
  if (p->state == RUNNING)
    80001dfc:	4c98                	lw	a4,24(s1)
    80001dfe:	4791                	li	a5,4
    80001e00:	06f70563          	beq	a4,a5,80001e6a <sched+0xa2>
  asm volatile("csrr %0, sstatus" : "=r"(x));
    80001e04:	100027f3          	csrr	a5,sstatus
  return (x & SSTATUS_SIE) != 0;
    80001e08:	8b89                	andi	a5,a5,2
  if (intr_get())
    80001e0a:	e7b5                	bnez	a5,80001e76 <sched+0xae>
  asm volatile("mv %0, tp" : "=r"(x));
    80001e0c:	8792                	mv	a5,tp
  intena = mycpu()->intena;
    80001e0e:	00010917          	auipc	s2,0x10
    80001e12:	4ba90913          	addi	s2,s2,1210 # 800122c8 <pid_lock>
    80001e16:	2781                	sext.w	a5,a5
    80001e18:	079e                	slli	a5,a5,0x7
    80001e1a:	97ca                	add	a5,a5,s2
    80001e1c:	0ac7a983          	lw	s3,172(a5)
    80001e20:	8792                	mv	a5,tp
  swtch(&p->context, &mycpu()->context);
    80001e22:	2781                	sext.w	a5,a5
    80001e24:	079e                	slli	a5,a5,0x7
    80001e26:	00010597          	auipc	a1,0x10
    80001e2a:	4da58593          	addi	a1,a1,1242 # 80012300 <cpus+0x8>
    80001e2e:	95be                	add	a1,a1,a5
    80001e30:	06048513          	addi	a0,s1,96
    80001e34:	50e000ef          	jal	80002342 <swtch>
    80001e38:	8792                	mv	a5,tp
  mycpu()->intena = intena;
    80001e3a:	2781                	sext.w	a5,a5
    80001e3c:	079e                	slli	a5,a5,0x7
    80001e3e:	993e                	add	s2,s2,a5
    80001e40:	0b392623          	sw	s3,172(s2)
}
    80001e44:	70a2                	ld	ra,40(sp)
    80001e46:	7402                	ld	s0,32(sp)
    80001e48:	64e2                	ld	s1,24(sp)
    80001e4a:	6942                	ld	s2,16(sp)
    80001e4c:	69a2                	ld	s3,8(sp)
    80001e4e:	6145                	addi	sp,sp,48
    80001e50:	8082                	ret
    panic("sched p->lock");
    80001e52:	00005517          	auipc	a0,0x5
    80001e56:	34650513          	addi	a0,a0,838 # 80007198 <etext+0x198>
    80001e5a:	97bfe0ef          	jal	800007d4 <panic>
    panic("sched locks");
    80001e5e:	00005517          	auipc	a0,0x5
    80001e62:	34a50513          	addi	a0,a0,842 # 800071a8 <etext+0x1a8>
    80001e66:	96ffe0ef          	jal	800007d4 <panic>
    panic("sched RUNNING");
    80001e6a:	00005517          	auipc	a0,0x5
    80001e6e:	34e50513          	addi	a0,a0,846 # 800071b8 <etext+0x1b8>
    80001e72:	963fe0ef          	jal	800007d4 <panic>
    panic("sched interruptible");
    80001e76:	00005517          	auipc	a0,0x5
    80001e7a:	35250513          	addi	a0,a0,850 # 800071c8 <etext+0x1c8>
    80001e7e:	957fe0ef          	jal	800007d4 <panic>

0000000080001e82 <yield>:
{
    80001e82:	1101                	addi	sp,sp,-32
    80001e84:	ec06                	sd	ra,24(sp)
    80001e86:	e822                	sd	s0,16(sp)
    80001e88:	e426                	sd	s1,8(sp)
    80001e8a:	1000                	addi	s0,sp,32
  struct proc *p = myproc();
    80001e8c:	a19ff0ef          	jal	800018a4 <myproc>
    80001e90:	84aa                	mv	s1,a0
  acquire(&p->lock);
    80001e92:	d1bfe0ef          	jal	80000bac <acquire>
  p->state = RUNNABLE;
    80001e96:	478d                	li	a5,3
    80001e98:	cc9c                	sw	a5,24(s1)
  sched();
    80001e9a:	f2fff0ef          	jal	80001dc8 <sched>
  release(&p->lock);
    80001e9e:	8526                	mv	a0,s1
    80001ea0:	da1fe0ef          	jal	80000c40 <release>
}
    80001ea4:	60e2                	ld	ra,24(sp)
    80001ea6:	6442                	ld	s0,16(sp)
    80001ea8:	64a2                	ld	s1,8(sp)
    80001eaa:	6105                	addi	sp,sp,32
    80001eac:	8082                	ret

0000000080001eae <sleep>:

// Sleep on channel chan, releasing condition lock lk.
// Re-acquires lk when awakened.
void
sleep(void *chan, struct spinlock *lk)
{
    80001eae:	7179                	addi	sp,sp,-48
    80001eb0:	f406                	sd	ra,40(sp)
    80001eb2:	f022                	sd	s0,32(sp)
    80001eb4:	ec26                	sd	s1,24(sp)
    80001eb6:	e84a                	sd	s2,16(sp)
    80001eb8:	e44e                	sd	s3,8(sp)
    80001eba:	1800                	addi	s0,sp,48
    80001ebc:	89aa                	mv	s3,a0
    80001ebe:	892e                	mv	s2,a1
  struct proc *p = myproc();
    80001ec0:	9e5ff0ef          	jal	800018a4 <myproc>
    80001ec4:	84aa                	mv	s1,a0
  // Once we hold p->lock, we can be
  // guaranteed that we won't miss any wakeup
  // (wakeup locks p->lock),
  // so it's okay to release lk.

  acquire(&p->lock); //DOC: sleeplock1
    80001ec6:	ce7fe0ef          	jal	80000bac <acquire>
  release(lk);
    80001eca:	854a                	mv	a0,s2
    80001ecc:	d75fe0ef          	jal	80000c40 <release>

  // Go to sleep.
  p->chan = chan;
    80001ed0:	0334b023          	sd	s3,32(s1)
  p->state = SLEEPING;
    80001ed4:	4789                	li	a5,2
    80001ed6:	cc9c                	sw	a5,24(s1)

  sched();
    80001ed8:	ef1ff0ef          	jal	80001dc8 <sched>

  // Tidy up.
  p->chan = 0;
    80001edc:	0204b023          	sd	zero,32(s1)

  // Reacquire original lock.
  release(&p->lock);
    80001ee0:	8526                	mv	a0,s1
    80001ee2:	d5ffe0ef          	jal	80000c40 <release>
  acquire(lk);
    80001ee6:	854a                	mv	a0,s2
    80001ee8:	cc5fe0ef          	jal	80000bac <acquire>
}
    80001eec:	70a2                	ld	ra,40(sp)
    80001eee:	7402                	ld	s0,32(sp)
    80001ef0:	64e2                	ld	s1,24(sp)
    80001ef2:	6942                	ld	s2,16(sp)
    80001ef4:	69a2                	ld	s3,8(sp)
    80001ef6:	6145                	addi	sp,sp,48
    80001ef8:	8082                	ret

0000000080001efa <wakeup>:

// Wake up all processes sleeping on channel chan.
// Caller should hold the condition lock.
void
wakeup(void *chan)
{
    80001efa:	7139                	addi	sp,sp,-64
    80001efc:	fc06                	sd	ra,56(sp)
    80001efe:	f822                	sd	s0,48(sp)
    80001f00:	f426                	sd	s1,40(sp)
    80001f02:	f04a                	sd	s2,32(sp)
    80001f04:	ec4e                	sd	s3,24(sp)
    80001f06:	e852                	sd	s4,16(sp)
    80001f08:	e456                	sd	s5,8(sp)
    80001f0a:	0080                	addi	s0,sp,64
    80001f0c:	8a2a                	mv	s4,a0
  struct proc *p;

  for (p = proc; p < &proc[NPROC]; p++) {
    80001f0e:	00010497          	auipc	s1,0x10
    80001f12:	7ea48493          	addi	s1,s1,2026 # 800126f8 <proc>
    if (p != myproc()) {
      acquire(&p->lock);
      if (p->state == SLEEPING && p->chan == chan) {
    80001f16:	4989                	li	s3,2
        p->state = RUNNABLE;
    80001f18:	4a8d                	li	s5,3
  for (p = proc; p < &proc[NPROC]; p++) {
    80001f1a:	00016917          	auipc	s2,0x16
    80001f1e:	1de90913          	addi	s2,s2,478 # 800180f8 <tickslock>
    80001f22:	a801                	j	80001f32 <wakeup+0x38>
      }
      release(&p->lock);
    80001f24:	8526                	mv	a0,s1
    80001f26:	d1bfe0ef          	jal	80000c40 <release>
  for (p = proc; p < &proc[NPROC]; p++) {
    80001f2a:	16848493          	addi	s1,s1,360
    80001f2e:	03248263          	beq	s1,s2,80001f52 <wakeup+0x58>
    if (p != myproc()) {
    80001f32:	973ff0ef          	jal	800018a4 <myproc>
    80001f36:	fea48ae3          	beq	s1,a0,80001f2a <wakeup+0x30>
      acquire(&p->lock);
    80001f3a:	8526                	mv	a0,s1
    80001f3c:	c71fe0ef          	jal	80000bac <acquire>
      if (p->state == SLEEPING && p->chan == chan) {
    80001f40:	4c9c                	lw	a5,24(s1)
    80001f42:	ff3791e3          	bne	a5,s3,80001f24 <wakeup+0x2a>
    80001f46:	709c                	ld	a5,32(s1)
    80001f48:	fd479ee3          	bne	a5,s4,80001f24 <wakeup+0x2a>
        p->state = RUNNABLE;
    80001f4c:	0154ac23          	sw	s5,24(s1)
    80001f50:	bfd1                	j	80001f24 <wakeup+0x2a>
    }
  }
}
    80001f52:	70e2                	ld	ra,56(sp)
    80001f54:	7442                	ld	s0,48(sp)
    80001f56:	74a2                	ld	s1,40(sp)
    80001f58:	7902                	ld	s2,32(sp)
    80001f5a:	69e2                	ld	s3,24(sp)
    80001f5c:	6a42                	ld	s4,16(sp)
    80001f5e:	6aa2                	ld	s5,8(sp)
    80001f60:	6121                	addi	sp,sp,64
    80001f62:	8082                	ret

0000000080001f64 <reparent>:
{
    80001f64:	7179                	addi	sp,sp,-48
    80001f66:	f406                	sd	ra,40(sp)
    80001f68:	f022                	sd	s0,32(sp)
    80001f6a:	ec26                	sd	s1,24(sp)
    80001f6c:	e84a                	sd	s2,16(sp)
    80001f6e:	e44e                	sd	s3,8(sp)
    80001f70:	e052                	sd	s4,0(sp)
    80001f72:	1800                	addi	s0,sp,48
    80001f74:	892a                	mv	s2,a0
  for (pp = proc; pp < &proc[NPROC]; pp++) {
    80001f76:	00010497          	auipc	s1,0x10
    80001f7a:	78248493          	addi	s1,s1,1922 # 800126f8 <proc>
      pp->parent = initproc;
    80001f7e:	00008a17          	auipc	s4,0x8
    80001f82:	242a0a13          	addi	s4,s4,578 # 8000a1c0 <initproc>
  for (pp = proc; pp < &proc[NPROC]; pp++) {
    80001f86:	00016997          	auipc	s3,0x16
    80001f8a:	17298993          	addi	s3,s3,370 # 800180f8 <tickslock>
    80001f8e:	a029                	j	80001f98 <reparent+0x34>
    80001f90:	16848493          	addi	s1,s1,360
    80001f94:	01348b63          	beq	s1,s3,80001faa <reparent+0x46>
    if (pp->parent == p) {
    80001f98:	7c9c                	ld	a5,56(s1)
    80001f9a:	ff279be3          	bne	a5,s2,80001f90 <reparent+0x2c>
      pp->parent = initproc;
    80001f9e:	000a3503          	ld	a0,0(s4)
    80001fa2:	fc88                	sd	a0,56(s1)
      wakeup(initproc);
    80001fa4:	f57ff0ef          	jal	80001efa <wakeup>
    80001fa8:	b7e5                	j	80001f90 <reparent+0x2c>
}
    80001faa:	70a2                	ld	ra,40(sp)
    80001fac:	7402                	ld	s0,32(sp)
    80001fae:	64e2                	ld	s1,24(sp)
    80001fb0:	6942                	ld	s2,16(sp)
    80001fb2:	69a2                	ld	s3,8(sp)
    80001fb4:	6a02                	ld	s4,0(sp)
    80001fb6:	6145                	addi	sp,sp,48
    80001fb8:	8082                	ret

0000000080001fba <kexit>:
{
    80001fba:	7179                	addi	sp,sp,-48
    80001fbc:	f406                	sd	ra,40(sp)
    80001fbe:	f022                	sd	s0,32(sp)
    80001fc0:	ec26                	sd	s1,24(sp)
    80001fc2:	e84a                	sd	s2,16(sp)
    80001fc4:	e44e                	sd	s3,8(sp)
    80001fc6:	e052                	sd	s4,0(sp)
    80001fc8:	1800                	addi	s0,sp,48
    80001fca:	8a2a                	mv	s4,a0
  struct proc *p = myproc();
    80001fcc:	8d9ff0ef          	jal	800018a4 <myproc>
    80001fd0:	89aa                	mv	s3,a0
  if (p == initproc)
    80001fd2:	00008797          	auipc	a5,0x8
    80001fd6:	1ee7b783          	ld	a5,494(a5) # 8000a1c0 <initproc>
    80001fda:	0d050493          	addi	s1,a0,208
    80001fde:	15050913          	addi	s2,a0,336
    80001fe2:	00a79f63          	bne	a5,a0,80002000 <kexit+0x46>
    panic("init exiting");
    80001fe6:	00005517          	auipc	a0,0x5
    80001fea:	1fa50513          	addi	a0,a0,506 # 800071e0 <etext+0x1e0>
    80001fee:	fe6fe0ef          	jal	800007d4 <panic>
      fileclose(f);
    80001ff2:	024020ef          	jal	80004016 <fileclose>
      p->ofile[fd] = 0;
    80001ff6:	0004b023          	sd	zero,0(s1)
  for (int fd = 0; fd < NOFILE; fd++) {
    80001ffa:	04a1                	addi	s1,s1,8
    80001ffc:	01248563          	beq	s1,s2,80002006 <kexit+0x4c>
    if (p->ofile[fd]) {
    80002000:	6088                	ld	a0,0(s1)
    80002002:	f965                	bnez	a0,80001ff2 <kexit+0x38>
    80002004:	bfdd                	j	80001ffa <kexit+0x40>
  begin_op();
    80002006:	39d010ef          	jal	80003ba2 <begin_op>
  iput(p->cwd);
    8000200a:	1509b503          	ld	a0,336(s3)
    8000200e:	32c010ef          	jal	8000333a <iput>
  end_op();
    80002012:	3fb010ef          	jal	80003c0c <end_op>
  p->cwd = 0;
    80002016:	1409b823          	sd	zero,336(s3)
  acquire(&wait_lock);
    8000201a:	00010497          	auipc	s1,0x10
    8000201e:	2c648493          	addi	s1,s1,710 # 800122e0 <wait_lock>
    80002022:	8526                	mv	a0,s1
    80002024:	b89fe0ef          	jal	80000bac <acquire>
  reparent(p);
    80002028:	854e                	mv	a0,s3
    8000202a:	f3bff0ef          	jal	80001f64 <reparent>
  wakeup(p->parent);
    8000202e:	0389b503          	ld	a0,56(s3)
    80002032:	ec9ff0ef          	jal	80001efa <wakeup>
  acquire(&p->lock);
    80002036:	854e                	mv	a0,s3
    80002038:	b75fe0ef          	jal	80000bac <acquire>
  p->xstate = status;
    8000203c:	0349a623          	sw	s4,44(s3)
  p->state = ZOMBIE;
    80002040:	4795                	li	a5,5
    80002042:	00f9ac23          	sw	a5,24(s3)
  release(&wait_lock);
    80002046:	8526                	mv	a0,s1
    80002048:	bf9fe0ef          	jal	80000c40 <release>
  sched();
    8000204c:	d7dff0ef          	jal	80001dc8 <sched>
  panic("zombie exit");
    80002050:	00005517          	auipc	a0,0x5
    80002054:	1a050513          	addi	a0,a0,416 # 800071f0 <etext+0x1f0>
    80002058:	f7cfe0ef          	jal	800007d4 <panic>

000000008000205c <kkill>:
// Kill the process with the given pid.
// The victim won't exit until it tries to return
// to user space (see usertrap() in trap.c).
int
kkill(int pid)
{
    8000205c:	7179                	addi	sp,sp,-48
    8000205e:	f406                	sd	ra,40(sp)
    80002060:	f022                	sd	s0,32(sp)
    80002062:	ec26                	sd	s1,24(sp)
    80002064:	e84a                	sd	s2,16(sp)
    80002066:	e44e                	sd	s3,8(sp)
    80002068:	1800                	addi	s0,sp,48
    8000206a:	892a                	mv	s2,a0
  struct proc *p;

  for (p = proc; p < &proc[NPROC]; p++) {
    8000206c:	00010497          	auipc	s1,0x10
    80002070:	68c48493          	addi	s1,s1,1676 # 800126f8 <proc>
    80002074:	00016997          	auipc	s3,0x16
    80002078:	08498993          	addi	s3,s3,132 # 800180f8 <tickslock>
    acquire(&p->lock);
    8000207c:	8526                	mv	a0,s1
    8000207e:	b2ffe0ef          	jal	80000bac <acquire>
    if (p->pid == pid) {
    80002082:	589c                	lw	a5,48(s1)
    80002084:	01278b63          	beq	a5,s2,8000209a <kkill+0x3e>
        p->state = RUNNABLE;
      }
      release(&p->lock);
      return 0;
    }
    release(&p->lock);
    80002088:	8526                	mv	a0,s1
    8000208a:	bb7fe0ef          	jal	80000c40 <release>
  for (p = proc; p < &proc[NPROC]; p++) {
    8000208e:	16848493          	addi	s1,s1,360
    80002092:	ff3495e3          	bne	s1,s3,8000207c <kkill+0x20>
  }
  return -1;
    80002096:	557d                	li	a0,-1
    80002098:	a819                	j	800020ae <kkill+0x52>
      p->killed = 1;
    8000209a:	4785                	li	a5,1
    8000209c:	d49c                	sw	a5,40(s1)
      if (p->state == SLEEPING) {
    8000209e:	4c98                	lw	a4,24(s1)
    800020a0:	4789                	li	a5,2
    800020a2:	00f70d63          	beq	a4,a5,800020bc <kkill+0x60>
      release(&p->lock);
    800020a6:	8526                	mv	a0,s1
    800020a8:	b99fe0ef          	jal	80000c40 <release>
      return 0;
    800020ac:	4501                	li	a0,0
}
    800020ae:	70a2                	ld	ra,40(sp)
    800020b0:	7402                	ld	s0,32(sp)
    800020b2:	64e2                	ld	s1,24(sp)
    800020b4:	6942                	ld	s2,16(sp)
    800020b6:	69a2                	ld	s3,8(sp)
    800020b8:	6145                	addi	sp,sp,48
    800020ba:	8082                	ret
        p->state = RUNNABLE;
    800020bc:	478d                	li	a5,3
    800020be:	cc9c                	sw	a5,24(s1)
    800020c0:	b7dd                	j	800020a6 <kkill+0x4a>

00000000800020c2 <setkilled>:

void
setkilled(struct proc *p)
{
    800020c2:	1101                	addi	sp,sp,-32
    800020c4:	ec06                	sd	ra,24(sp)
    800020c6:	e822                	sd	s0,16(sp)
    800020c8:	e426                	sd	s1,8(sp)
    800020ca:	1000                	addi	s0,sp,32
    800020cc:	84aa                	mv	s1,a0
  acquire(&p->lock);
    800020ce:	adffe0ef          	jal	80000bac <acquire>
  p->killed = 1;
    800020d2:	4785                	li	a5,1
    800020d4:	d49c                	sw	a5,40(s1)
  release(&p->lock);
    800020d6:	8526                	mv	a0,s1
    800020d8:	b69fe0ef          	jal	80000c40 <release>
}
    800020dc:	60e2                	ld	ra,24(sp)
    800020de:	6442                	ld	s0,16(sp)
    800020e0:	64a2                	ld	s1,8(sp)
    800020e2:	6105                	addi	sp,sp,32
    800020e4:	8082                	ret

00000000800020e6 <killed>:

int
killed(struct proc *p)
{
    800020e6:	1101                	addi	sp,sp,-32
    800020e8:	ec06                	sd	ra,24(sp)
    800020ea:	e822                	sd	s0,16(sp)
    800020ec:	e426                	sd	s1,8(sp)
    800020ee:	e04a                	sd	s2,0(sp)
    800020f0:	1000                	addi	s0,sp,32
    800020f2:	84aa                	mv	s1,a0
  int k;

  acquire(&p->lock);
    800020f4:	ab9fe0ef          	jal	80000bac <acquire>
  k = p->killed;
    800020f8:	0284a903          	lw	s2,40(s1)
  release(&p->lock);
    800020fc:	8526                	mv	a0,s1
    800020fe:	b43fe0ef          	jal	80000c40 <release>
  return k;
}
    80002102:	854a                	mv	a0,s2
    80002104:	60e2                	ld	ra,24(sp)
    80002106:	6442                	ld	s0,16(sp)
    80002108:	64a2                	ld	s1,8(sp)
    8000210a:	6902                	ld	s2,0(sp)
    8000210c:	6105                	addi	sp,sp,32
    8000210e:	8082                	ret

0000000080002110 <kwait>:
{
    80002110:	715d                	addi	sp,sp,-80
    80002112:	e486                	sd	ra,72(sp)
    80002114:	e0a2                	sd	s0,64(sp)
    80002116:	fc26                	sd	s1,56(sp)
    80002118:	f84a                	sd	s2,48(sp)
    8000211a:	f44e                	sd	s3,40(sp)
    8000211c:	f052                	sd	s4,32(sp)
    8000211e:	ec56                	sd	s5,24(sp)
    80002120:	e85a                	sd	s6,16(sp)
    80002122:	e45e                	sd	s7,8(sp)
    80002124:	e062                	sd	s8,0(sp)
    80002126:	0880                	addi	s0,sp,80
    80002128:	8b2a                	mv	s6,a0
  struct proc *p = myproc();
    8000212a:	f7aff0ef          	jal	800018a4 <myproc>
    8000212e:	892a                	mv	s2,a0
  acquire(&wait_lock);
    80002130:	00010517          	auipc	a0,0x10
    80002134:	1b050513          	addi	a0,a0,432 # 800122e0 <wait_lock>
    80002138:	a75fe0ef          	jal	80000bac <acquire>
    havekids = 0;
    8000213c:	4b81                	li	s7,0
        if (pp->state == ZOMBIE) {
    8000213e:	4a15                	li	s4,5
        havekids = 1;
    80002140:	4a85                	li	s5,1
    for (pp = proc; pp < &proc[NPROC]; pp++) {
    80002142:	00016997          	auipc	s3,0x16
    80002146:	fb698993          	addi	s3,s3,-74 # 800180f8 <tickslock>
    sleep(p, &wait_lock); //DOC: wait-sleep
    8000214a:	00010c17          	auipc	s8,0x10
    8000214e:	196c0c13          	addi	s8,s8,406 # 800122e0 <wait_lock>
    80002152:	a871                	j	800021ee <kwait+0xde>
          pid = pp->pid;
    80002154:	0304a983          	lw	s3,48(s1)
          if (addr != 0 && copyout(p->pagetable, addr, (char *)&pp->xstate,
    80002158:	000b0c63          	beqz	s6,80002170 <kwait+0x60>
    8000215c:	4691                	li	a3,4
    8000215e:	02c48613          	addi	a2,s1,44
    80002162:	85da                	mv	a1,s6
    80002164:	05093503          	ld	a0,80(s2)
    80002168:	c50ff0ef          	jal	800015b8 <copyout>
    8000216c:	02054b63          	bltz	a0,800021a2 <kwait+0x92>
          freeproc(pp);
    80002170:	8526                	mv	a0,s1
    80002172:	903ff0ef          	jal	80001a74 <freeproc>
          release(&pp->lock);
    80002176:	8526                	mv	a0,s1
    80002178:	ac9fe0ef          	jal	80000c40 <release>
          release(&wait_lock);
    8000217c:	00010517          	auipc	a0,0x10
    80002180:	16450513          	addi	a0,a0,356 # 800122e0 <wait_lock>
    80002184:	abdfe0ef          	jal	80000c40 <release>
}
    80002188:	854e                	mv	a0,s3
    8000218a:	60a6                	ld	ra,72(sp)
    8000218c:	6406                	ld	s0,64(sp)
    8000218e:	74e2                	ld	s1,56(sp)
    80002190:	7942                	ld	s2,48(sp)
    80002192:	79a2                	ld	s3,40(sp)
    80002194:	7a02                	ld	s4,32(sp)
    80002196:	6ae2                	ld	s5,24(sp)
    80002198:	6b42                	ld	s6,16(sp)
    8000219a:	6ba2                	ld	s7,8(sp)
    8000219c:	6c02                	ld	s8,0(sp)
    8000219e:	6161                	addi	sp,sp,80
    800021a0:	8082                	ret
            release(&pp->lock);
    800021a2:	8526                	mv	a0,s1
    800021a4:	a9dfe0ef          	jal	80000c40 <release>
            release(&wait_lock);
    800021a8:	00010517          	auipc	a0,0x10
    800021ac:	13850513          	addi	a0,a0,312 # 800122e0 <wait_lock>
    800021b0:	a91fe0ef          	jal	80000c40 <release>
            return -1;
    800021b4:	59fd                	li	s3,-1
    800021b6:	bfc9                	j	80002188 <kwait+0x78>
    for (pp = proc; pp < &proc[NPROC]; pp++) {
    800021b8:	16848493          	addi	s1,s1,360
    800021bc:	03348063          	beq	s1,s3,800021dc <kwait+0xcc>
      if (pp->parent == p) {
    800021c0:	7c9c                	ld	a5,56(s1)
    800021c2:	ff279be3          	bne	a5,s2,800021b8 <kwait+0xa8>
        acquire(&pp->lock);
    800021c6:	8526                	mv	a0,s1
    800021c8:	9e5fe0ef          	jal	80000bac <acquire>
        if (pp->state == ZOMBIE) {
    800021cc:	4c9c                	lw	a5,24(s1)
    800021ce:	f94783e3          	beq	a5,s4,80002154 <kwait+0x44>
        release(&pp->lock);
    800021d2:	8526                	mv	a0,s1
    800021d4:	a6dfe0ef          	jal	80000c40 <release>
        havekids = 1;
    800021d8:	8756                	mv	a4,s5
    800021da:	bff9                	j	800021b8 <kwait+0xa8>
    if (!havekids || killed(p)) {
    800021dc:	cf19                	beqz	a4,800021fa <kwait+0xea>
    800021de:	854a                	mv	a0,s2
    800021e0:	f07ff0ef          	jal	800020e6 <killed>
    800021e4:	e919                	bnez	a0,800021fa <kwait+0xea>
    sleep(p, &wait_lock); //DOC: wait-sleep
    800021e6:	85e2                	mv	a1,s8
    800021e8:	854a                	mv	a0,s2
    800021ea:	cc5ff0ef          	jal	80001eae <sleep>
    havekids = 0;
    800021ee:	875e                	mv	a4,s7
    for (pp = proc; pp < &proc[NPROC]; pp++) {
    800021f0:	00010497          	auipc	s1,0x10
    800021f4:	50848493          	addi	s1,s1,1288 # 800126f8 <proc>
    800021f8:	b7e1                	j	800021c0 <kwait+0xb0>
      release(&wait_lock);
    800021fa:	00010517          	auipc	a0,0x10
    800021fe:	0e650513          	addi	a0,a0,230 # 800122e0 <wait_lock>
    80002202:	a3ffe0ef          	jal	80000c40 <release>
      return -1;
    80002206:	59fd                	li	s3,-1
    80002208:	b741                	j	80002188 <kwait+0x78>

000000008000220a <either_copyout>:
// Copy to either a user address, or kernel address,
// depending on usr_dst.
// Returns 0 on success, -1 on error.
int
either_copyout(int user_dst, uint64 dst, void *src, uint64 len)
{
    8000220a:	7179                	addi	sp,sp,-48
    8000220c:	f406                	sd	ra,40(sp)
    8000220e:	f022                	sd	s0,32(sp)
    80002210:	ec26                	sd	s1,24(sp)
    80002212:	e84a                	sd	s2,16(sp)
    80002214:	e44e                	sd	s3,8(sp)
    80002216:	e052                	sd	s4,0(sp)
    80002218:	1800                	addi	s0,sp,48
    8000221a:	84aa                	mv	s1,a0
    8000221c:	892e                	mv	s2,a1
    8000221e:	89b2                	mv	s3,a2
    80002220:	8a36                	mv	s4,a3
  struct proc *p = myproc();
    80002222:	e82ff0ef          	jal	800018a4 <myproc>
  if (user_dst) {
    80002226:	cc99                	beqz	s1,80002244 <either_copyout+0x3a>
    return copyout(p->pagetable, dst, src, len);
    80002228:	86d2                	mv	a3,s4
    8000222a:	864e                	mv	a2,s3
    8000222c:	85ca                	mv	a1,s2
    8000222e:	6928                	ld	a0,80(a0)
    80002230:	b88ff0ef          	jal	800015b8 <copyout>
  } else {
    memmove((char *)dst, src, len);
    return 0;
  }
}
    80002234:	70a2                	ld	ra,40(sp)
    80002236:	7402                	ld	s0,32(sp)
    80002238:	64e2                	ld	s1,24(sp)
    8000223a:	6942                	ld	s2,16(sp)
    8000223c:	69a2                	ld	s3,8(sp)
    8000223e:	6a02                	ld	s4,0(sp)
    80002240:	6145                	addi	sp,sp,48
    80002242:	8082                	ret
    memmove((char *)dst, src, len);
    80002244:	000a061b          	sext.w	a2,s4
    80002248:	85ce                	mv	a1,s3
    8000224a:	854a                	mv	a0,s2
    8000224c:	a89fe0ef          	jal	80000cd4 <memmove>
    return 0;
    80002250:	8526                	mv	a0,s1
    80002252:	b7cd                	j	80002234 <either_copyout+0x2a>

0000000080002254 <either_copyin>:
// Copy from either a user address, or kernel address,
// depending on usr_src.
// Returns 0 on success, -1 on error.
int
either_copyin(void *dst, int user_src, uint64 src, uint64 len)
{
    80002254:	7179                	addi	sp,sp,-48
    80002256:	f406                	sd	ra,40(sp)
    80002258:	f022                	sd	s0,32(sp)
    8000225a:	ec26                	sd	s1,24(sp)
    8000225c:	e84a                	sd	s2,16(sp)
    8000225e:	e44e                	sd	s3,8(sp)
    80002260:	e052                	sd	s4,0(sp)
    80002262:	1800                	addi	s0,sp,48
    80002264:	892a                	mv	s2,a0
    80002266:	84ae                	mv	s1,a1
    80002268:	89b2                	mv	s3,a2
    8000226a:	8a36                	mv	s4,a3
  struct proc *p = myproc();
    8000226c:	e38ff0ef          	jal	800018a4 <myproc>
  if (user_src) {
    80002270:	cc99                	beqz	s1,8000228e <either_copyin+0x3a>
    return copyin(p->pagetable, dst, src, len);
    80002272:	86d2                	mv	a3,s4
    80002274:	864e                	mv	a2,s3
    80002276:	85ca                	mv	a1,s2
    80002278:	6928                	ld	a0,80(a0)
    8000227a:	c22ff0ef          	jal	8000169c <copyin>
  } else {
    memmove(dst, (char *)src, len);
    return 0;
  }
}
    8000227e:	70a2                	ld	ra,40(sp)
    80002280:	7402                	ld	s0,32(sp)
    80002282:	64e2                	ld	s1,24(sp)
    80002284:	6942                	ld	s2,16(sp)
    80002286:	69a2                	ld	s3,8(sp)
    80002288:	6a02                	ld	s4,0(sp)
    8000228a:	6145                	addi	sp,sp,48
    8000228c:	8082                	ret
    memmove(dst, (char *)src, len);
    8000228e:	000a061b          	sext.w	a2,s4
    80002292:	85ce                	mv	a1,s3
    80002294:	854a                	mv	a0,s2
    80002296:	a3ffe0ef          	jal	80000cd4 <memmove>
    return 0;
    8000229a:	8526                	mv	a0,s1
    8000229c:	b7cd                	j	8000227e <either_copyin+0x2a>

000000008000229e <procdump>:
// Print a process listing to console.  For debugging.
// Runs when user types ^P on console.
// No lock to avoid wedging a stuck machine further.
void
procdump(void)
{
    8000229e:	715d                	addi	sp,sp,-80
    800022a0:	e486                	sd	ra,72(sp)
    800022a2:	e0a2                	sd	s0,64(sp)
    800022a4:	fc26                	sd	s1,56(sp)
    800022a6:	f84a                	sd	s2,48(sp)
    800022a8:	f44e                	sd	s3,40(sp)
    800022aa:	f052                	sd	s4,32(sp)
    800022ac:	ec56                	sd	s5,24(sp)
    800022ae:	e85a                	sd	s6,16(sp)
    800022b0:	e45e                	sd	s7,8(sp)
    800022b2:	0880                	addi	s0,sp,80
    // clang-format on
  };
  struct proc *p;
  char *state;

  printk("\n");
    800022b4:	00005517          	auipc	a0,0x5
    800022b8:	dc450513          	addi	a0,a0,-572 # 80007078 <etext+0x78>
    800022bc:	a32fe0ef          	jal	800004ee <printk>
  for (p = proc; p < &proc[NPROC]; p++) {
    800022c0:	00010497          	auipc	s1,0x10
    800022c4:	59048493          	addi	s1,s1,1424 # 80012850 <proc+0x158>
    800022c8:	00016917          	auipc	s2,0x16
    800022cc:	f8890913          	addi	s2,s2,-120 # 80018250 <bcache+0x140>
    if (p->state == UNUSED)
      continue;
    if (p->state >= 0 && p->state < NELEM(states) && states[p->state])
    800022d0:	4b15                	li	s6,5
      state = states[p->state];
    else
      state = "???";
    800022d2:	00005997          	auipc	s3,0x5
    800022d6:	f2e98993          	addi	s3,s3,-210 # 80007200 <etext+0x200>
    printk("%d %s %s", p->pid, state, p->name);
    800022da:	00005a97          	auipc	s5,0x5
    800022de:	f2ea8a93          	addi	s5,s5,-210 # 80007208 <etext+0x208>
    printk("\n");
    800022e2:	00005a17          	auipc	s4,0x5
    800022e6:	d96a0a13          	addi	s4,s4,-618 # 80007078 <etext+0x78>
    if (p->state >= 0 && p->state < NELEM(states) && states[p->state])
    800022ea:	00005b97          	auipc	s7,0x5
    800022ee:	43eb8b93          	addi	s7,s7,1086 # 80007728 <states.0>
    800022f2:	a829                	j	8000230c <procdump+0x6e>
    printk("%d %s %s", p->pid, state, p->name);
    800022f4:	ed86a583          	lw	a1,-296(a3)
    800022f8:	8556                	mv	a0,s5
    800022fa:	9f4fe0ef          	jal	800004ee <printk>
    printk("\n");
    800022fe:	8552                	mv	a0,s4
    80002300:	9eefe0ef          	jal	800004ee <printk>
  for (p = proc; p < &proc[NPROC]; p++) {
    80002304:	16848493          	addi	s1,s1,360
    80002308:	03248263          	beq	s1,s2,8000232c <procdump+0x8e>
    if (p->state == UNUSED)
    8000230c:	86a6                	mv	a3,s1
    8000230e:	ec04a783          	lw	a5,-320(s1)
    80002312:	dbed                	beqz	a5,80002304 <procdump+0x66>
      state = "???";
    80002314:	864e                	mv	a2,s3
    if (p->state >= 0 && p->state < NELEM(states) && states[p->state])
    80002316:	fcfb6fe3          	bltu	s6,a5,800022f4 <procdump+0x56>
    8000231a:	02079713          	slli	a4,a5,0x20
    8000231e:	01d75793          	srli	a5,a4,0x1d
    80002322:	97de                	add	a5,a5,s7
    80002324:	6390                	ld	a2,0(a5)
    80002326:	f679                	bnez	a2,800022f4 <procdump+0x56>
      state = "???";
    80002328:	864e                	mv	a2,s3
    8000232a:	b7e9                	j	800022f4 <procdump+0x56>
  }
}
    8000232c:	60a6                	ld	ra,72(sp)
    8000232e:	6406                	ld	s0,64(sp)
    80002330:	74e2                	ld	s1,56(sp)
    80002332:	7942                	ld	s2,48(sp)
    80002334:	79a2                	ld	s3,40(sp)
    80002336:	7a02                	ld	s4,32(sp)
    80002338:	6ae2                	ld	s5,24(sp)
    8000233a:	6b42                	ld	s6,16(sp)
    8000233c:	6ba2                	ld	s7,8(sp)
    8000233e:	6161                	addi	sp,sp,80
    80002340:	8082                	ret

0000000080002342 <swtch>:
# Save current registers in old. Load from new.	


.globl swtch
swtch:
        sd ra, 0(a0)
    80002342:	00153023          	sd	ra,0(a0)
        sd sp, 8(a0)
    80002346:	00253423          	sd	sp,8(a0)
        sd s0, 16(a0)
    8000234a:	e900                	sd	s0,16(a0)
        sd s1, 24(a0)
    8000234c:	ed04                	sd	s1,24(a0)
        sd s2, 32(a0)
    8000234e:	03253023          	sd	s2,32(a0)
        sd s3, 40(a0)
    80002352:	03353423          	sd	s3,40(a0)
        sd s4, 48(a0)
    80002356:	03453823          	sd	s4,48(a0)
        sd s5, 56(a0)
    8000235a:	03553c23          	sd	s5,56(a0)
        sd s6, 64(a0)
    8000235e:	05653023          	sd	s6,64(a0)
        sd s7, 72(a0)
    80002362:	05753423          	sd	s7,72(a0)
        sd s8, 80(a0)
    80002366:	05853823          	sd	s8,80(a0)
        sd s9, 88(a0)
    8000236a:	05953c23          	sd	s9,88(a0)
        sd s10, 96(a0)
    8000236e:	07a53023          	sd	s10,96(a0)
        sd s11, 104(a0)
    80002372:	07b53423          	sd	s11,104(a0)

        ld ra, 0(a1)
    80002376:	0005b083          	ld	ra,0(a1)
        ld sp, 8(a1)
    8000237a:	0085b103          	ld	sp,8(a1)
        ld s0, 16(a1)
    8000237e:	6980                	ld	s0,16(a1)
        ld s1, 24(a1)
    80002380:	6d84                	ld	s1,24(a1)
        ld s2, 32(a1)
    80002382:	0205b903          	ld	s2,32(a1)
        ld s3, 40(a1)
    80002386:	0285b983          	ld	s3,40(a1)
        ld s4, 48(a1)
    8000238a:	0305ba03          	ld	s4,48(a1)
        ld s5, 56(a1)
    8000238e:	0385ba83          	ld	s5,56(a1)
        ld s6, 64(a1)
    80002392:	0405bb03          	ld	s6,64(a1)
        ld s7, 72(a1)
    80002396:	0485bb83          	ld	s7,72(a1)
        ld s8, 80(a1)
    8000239a:	0505bc03          	ld	s8,80(a1)
        ld s9, 88(a1)
    8000239e:	0585bc83          	ld	s9,88(a1)
        ld s10, 96(a1)
    800023a2:	0605bd03          	ld	s10,96(a1)
        ld s11, 104(a1)
    800023a6:	0685bd83          	ld	s11,104(a1)
        
        ret
    800023aa:	8082                	ret

00000000800023ac <trapinit>:

extern int devintr();

void
trapinit(void)
{
    800023ac:	1141                	addi	sp,sp,-16
    800023ae:	e406                	sd	ra,8(sp)
    800023b0:	e022                	sd	s0,0(sp)
    800023b2:	0800                	addi	s0,sp,16
  initlock(&tickslock, "time");
    800023b4:	00005597          	auipc	a1,0x5
    800023b8:	e9458593          	addi	a1,a1,-364 # 80007248 <etext+0x248>
    800023bc:	00016517          	auipc	a0,0x16
    800023c0:	d3c50513          	addi	a0,a0,-708 # 800180f8 <tickslock>
    800023c4:	f68fe0ef          	jal	80000b2c <initlock>
}
    800023c8:	60a2                	ld	ra,8(sp)
    800023ca:	6402                	ld	s0,0(sp)
    800023cc:	0141                	addi	sp,sp,16
    800023ce:	8082                	ret

00000000800023d0 <trapinithart>:

// set up to take exceptions and traps while in the kernel.
void
trapinithart(void)
{
    800023d0:	1141                	addi	sp,sp,-16
    800023d2:	e422                	sd	s0,8(sp)
    800023d4:	0800                	addi	s0,sp,16
  asm volatile("csrw stvec, %0" : : "r"(x));
    800023d6:	00003797          	auipc	a5,0x3
    800023da:	fba78793          	addi	a5,a5,-70 # 80005390 <kernelvec>
    800023de:	10579073          	csrw	stvec,a5
  w_stvec((uint64)kernelvec);
}
    800023e2:	6422                	ld	s0,8(sp)
    800023e4:	0141                	addi	sp,sp,16
    800023e6:	8082                	ret

00000000800023e8 <prepare_return>:
//
// set up trapframe and control registers for a return to user space
//
void
prepare_return(void)
{
    800023e8:	1141                	addi	sp,sp,-16
    800023ea:	e406                	sd	ra,8(sp)
    800023ec:	e022                	sd	s0,0(sp)
    800023ee:	0800                	addi	s0,sp,16
  struct proc *p = myproc();
    800023f0:	cb4ff0ef          	jal	800018a4 <myproc>
  asm volatile("csrr %0, sstatus" : "=r"(x));
    800023f4:	100027f3          	csrr	a5,sstatus
  w_sstatus(r_sstatus() & ~SSTATUS_SIE);
    800023f8:	9bf5                	andi	a5,a5,-3
  asm volatile("csrw sstatus, %0" : : "r"(x));
    800023fa:	10079073          	csrw	sstatus,a5
  // kerneltrap() to usertrap(). because a trap from kernel
  // code to usertrap would be a disaster, turn off interrupts.
  intr_off();

  // send syscalls, interrupts, and exceptions to uservec in trampoline.S
  uint64 trampoline_uservec = TRAMPOLINE + (uservec - trampoline);
    800023fe:	04000737          	lui	a4,0x4000
    80002402:	177d                	addi	a4,a4,-1 # 3ffffff <_entry-0x7c000001>
    80002404:	0732                	slli	a4,a4,0xc
    80002406:	00004797          	auipc	a5,0x4
    8000240a:	bfa78793          	addi	a5,a5,-1030 # 80006000 <_trampoline>
    8000240e:	00004697          	auipc	a3,0x4
    80002412:	bf268693          	addi	a3,a3,-1038 # 80006000 <_trampoline>
    80002416:	8f95                	sub	a5,a5,a3
    80002418:	97ba                	add	a5,a5,a4
  asm volatile("csrw stvec, %0" : : "r"(x));
    8000241a:	10579073          	csrw	stvec,a5
  w_stvec(trampoline_uservec);

  // set up trapframe values that uservec will need when
  // the process next traps into the kernel.
  p->trapframe->kernel_satp = r_satp();         // kernel page table
    8000241e:	6d3c                	ld	a5,88(a0)
  asm volatile("csrr %0, satp" : "=r"(x));
    80002420:	18002773          	csrr	a4,satp
    80002424:	e398                	sd	a4,0(a5)
  p->trapframe->kernel_sp = p->kstack + PGSIZE; // process's kernel stack
    80002426:	6d38                	ld	a4,88(a0)
    80002428:	613c                	ld	a5,64(a0)
    8000242a:	6685                	lui	a3,0x1
    8000242c:	97b6                	add	a5,a5,a3
    8000242e:	e71c                	sd	a5,8(a4)
  p->trapframe->kernel_trap = (uint64)usertrap;
    80002430:	6d3c                	ld	a5,88(a0)
    80002432:	00000717          	auipc	a4,0x0
    80002436:	0f870713          	addi	a4,a4,248 # 8000252a <usertrap>
    8000243a:	eb98                	sd	a4,16(a5)
  p->trapframe->kernel_hartid = r_tp(); // hartid for cpuid()
    8000243c:	6d3c                	ld	a5,88(a0)
  asm volatile("mv %0, tp" : "=r"(x));
    8000243e:	8712                	mv	a4,tp
    80002440:	f398                	sd	a4,32(a5)
  asm volatile("csrr %0, sstatus" : "=r"(x));
    80002442:	100027f3          	csrr	a5,sstatus
  // set up the registers that trampoline.S's sret will use
  // to get to user space.

  // set S Previous Privilege mode to User.
  unsigned long x = r_sstatus();
  x &= ~SSTATUS_SPP; // clear SPP to 0 for user mode
    80002446:	eff7f793          	andi	a5,a5,-257
  x |= SSTATUS_SPIE; // enable interrupts in user mode
    8000244a:	0207e793          	ori	a5,a5,32
  asm volatile("csrw sstatus, %0" : : "r"(x));
    8000244e:	10079073          	csrw	sstatus,a5
  w_sstatus(x);

  // set S Exception Program Counter to the saved user pc.
  w_sepc(p->trapframe->epc);
    80002452:	6d3c                	ld	a5,88(a0)
  asm volatile("csrw sepc, %0" : : "r"(x));
    80002454:	6f9c                	ld	a5,24(a5)
    80002456:	14179073          	csrw	sepc,a5
}
    8000245a:	60a2                	ld	ra,8(sp)
    8000245c:	6402                	ld	s0,0(sp)
    8000245e:	0141                	addi	sp,sp,16
    80002460:	8082                	ret

0000000080002462 <clockintr>:
  w_sstatus(sstatus);
}

void
clockintr()
{
    80002462:	1101                	addi	sp,sp,-32
    80002464:	ec06                	sd	ra,24(sp)
    80002466:	e822                	sd	s0,16(sp)
    80002468:	1000                	addi	s0,sp,32
  if (cpuid() == 0) {
    8000246a:	c0eff0ef          	jal	80001878 <cpuid>
    8000246e:	cd11                	beqz	a0,8000248a <clockintr+0x28>
  asm volatile("csrr %0, time" : "=r"(x));
    80002470:	c01027f3          	rdtime	a5
  }

  // ask for the next timer interrupt. this also clears
  // the interrupt request. 1000000 is about a tenth
  // of a second.
  w_stimecmp(r_time() + 1000000);
    80002474:	000f4737          	lui	a4,0xf4
    80002478:	24070713          	addi	a4,a4,576 # f4240 <_entry-0x7ff0bdc0>
    8000247c:	97ba                	add	a5,a5,a4
  asm volatile("csrw 0x14d, %0" : : "r"(x));
    8000247e:	14d79073          	csrw	stimecmp,a5
}
    80002482:	60e2                	ld	ra,24(sp)
    80002484:	6442                	ld	s0,16(sp)
    80002486:	6105                	addi	sp,sp,32
    80002488:	8082                	ret
    8000248a:	e426                	sd	s1,8(sp)
    acquire(&tickslock);
    8000248c:	00016497          	auipc	s1,0x16
    80002490:	c6c48493          	addi	s1,s1,-916 # 800180f8 <tickslock>
    80002494:	8526                	mv	a0,s1
    80002496:	f16fe0ef          	jal	80000bac <acquire>
    ticks++;
    8000249a:	00008517          	auipc	a0,0x8
    8000249e:	d2e50513          	addi	a0,a0,-722 # 8000a1c8 <ticks>
    800024a2:	411c                	lw	a5,0(a0)
    800024a4:	2785                	addiw	a5,a5,1
    800024a6:	c11c                	sw	a5,0(a0)
    wakeup(&ticks);
    800024a8:	a53ff0ef          	jal	80001efa <wakeup>
    release(&tickslock);
    800024ac:	8526                	mv	a0,s1
    800024ae:	f92fe0ef          	jal	80000c40 <release>
    800024b2:	64a2                	ld	s1,8(sp)
    800024b4:	bf75                	j	80002470 <clockintr+0xe>

00000000800024b6 <devintr>:
// returns 2 if timer interrupt,
// 1 if other device,
// 0 if not recognized.
int
devintr()
{
    800024b6:	1101                	addi	sp,sp,-32
    800024b8:	ec06                	sd	ra,24(sp)
    800024ba:	e822                	sd	s0,16(sp)
    800024bc:	1000                	addi	s0,sp,32
  asm volatile("csrr %0, scause" : "=r"(x));
    800024be:	14202773          	csrr	a4,scause
  uint64 scause = r_scause();

  if (scause == 0x8000000000000009L) {
    800024c2:	57fd                	li	a5,-1
    800024c4:	17fe                	slli	a5,a5,0x3f
    800024c6:	07a5                	addi	a5,a5,9
    800024c8:	00f70c63          	beq	a4,a5,800024e0 <devintr+0x2a>
    // now allowed to interrupt again.
    if (irq)
      plic_complete(irq);

    return 1;
  } else if (scause == 0x8000000000000005L) {
    800024cc:	57fd                	li	a5,-1
    800024ce:	17fe                	slli	a5,a5,0x3f
    800024d0:	0795                	addi	a5,a5,5
    // timer interrupt.
    clockintr();
    return 2;
  } else {
    return 0;
    800024d2:	4501                	li	a0,0
  } else if (scause == 0x8000000000000005L) {
    800024d4:	04f70763          	beq	a4,a5,80002522 <devintr+0x6c>
  }
}
    800024d8:	60e2                	ld	ra,24(sp)
    800024da:	6442                	ld	s0,16(sp)
    800024dc:	6105                	addi	sp,sp,32
    800024de:	8082                	ret
    800024e0:	e426                	sd	s1,8(sp)
    int irq = plic_claim();
    800024e2:	75b020ef          	jal	8000543c <plic_claim>
    800024e6:	84aa                	mv	s1,a0
    if (irq == UART0_IRQ) {
    800024e8:	47a9                	li	a5,10
    800024ea:	00f50963          	beq	a0,a5,800024fc <devintr+0x46>
    } else if (irq == VIRTIO0_IRQ) {
    800024ee:	4785                	li	a5,1
    800024f0:	00f50963          	beq	a0,a5,80002502 <devintr+0x4c>
    return 1;
    800024f4:	4505                	li	a0,1
    } else if (irq) {
    800024f6:	e889                	bnez	s1,80002508 <devintr+0x52>
    800024f8:	64a2                	ld	s1,8(sp)
    800024fa:	bff9                	j	800024d8 <devintr+0x22>
      uartintr();
    800024fc:	c82fe0ef          	jal	8000097e <uartintr>
    if (irq)
    80002500:	a819                	j	80002516 <devintr+0x60>
      virtio_disk_intr();
    80002502:	400030ef          	jal	80005902 <virtio_disk_intr>
    if (irq)
    80002506:	a801                	j	80002516 <devintr+0x60>
      printk("unexpected interrupt irq=%d\n", irq);
    80002508:	85a6                	mv	a1,s1
    8000250a:	00005517          	auipc	a0,0x5
    8000250e:	d4650513          	addi	a0,a0,-698 # 80007250 <etext+0x250>
    80002512:	fddfd0ef          	jal	800004ee <printk>
      plic_complete(irq);
    80002516:	8526                	mv	a0,s1
    80002518:	745020ef          	jal	8000545c <plic_complete>
    return 1;
    8000251c:	4505                	li	a0,1
    8000251e:	64a2                	ld	s1,8(sp)
    80002520:	bf65                	j	800024d8 <devintr+0x22>
    clockintr();
    80002522:	f41ff0ef          	jal	80002462 <clockintr>
    return 2;
    80002526:	4509                	li	a0,2
    80002528:	bf45                	j	800024d8 <devintr+0x22>

000000008000252a <usertrap>:
{
    8000252a:	1101                	addi	sp,sp,-32
    8000252c:	ec06                	sd	ra,24(sp)
    8000252e:	e822                	sd	s0,16(sp)
    80002530:	e426                	sd	s1,8(sp)
    80002532:	e04a                	sd	s2,0(sp)
    80002534:	1000                	addi	s0,sp,32
  asm volatile("csrr %0, sstatus" : "=r"(x));
    80002536:	100027f3          	csrr	a5,sstatus
  if ((r_sstatus() & SSTATUS_SPP) != 0)
    8000253a:	1007f793          	andi	a5,a5,256
    8000253e:	eba5                	bnez	a5,800025ae <usertrap+0x84>
  asm volatile("csrw stvec, %0" : : "r"(x));
    80002540:	00003797          	auipc	a5,0x3
    80002544:	e5078793          	addi	a5,a5,-432 # 80005390 <kernelvec>
    80002548:	10579073          	csrw	stvec,a5
  struct proc *p = myproc();
    8000254c:	b58ff0ef          	jal	800018a4 <myproc>
    80002550:	84aa                	mv	s1,a0
  p->trapframe->epc = r_sepc();
    80002552:	6d3c                	ld	a5,88(a0)
  asm volatile("csrr %0, sepc" : "=r"(x));
    80002554:	14102773          	csrr	a4,sepc
    80002558:	ef98                	sd	a4,24(a5)
  asm volatile("csrr %0, scause" : "=r"(x));
    8000255a:	14202773          	csrr	a4,scause
  if (r_scause() == 8) {
    8000255e:	47a1                	li	a5,8
    80002560:	04f70d63          	beq	a4,a5,800025ba <usertrap+0x90>
  } else if ((which_dev = devintr()) != 0) {
    80002564:	f53ff0ef          	jal	800024b6 <devintr>
    80002568:	892a                	mv	s2,a0
    8000256a:	e945                	bnez	a0,8000261a <usertrap+0xf0>
    8000256c:	14202773          	csrr	a4,scause
  } else if ((r_scause() == 15 || r_scause() == 13) &&
    80002570:	47bd                	li	a5,15
    80002572:	08f70863          	beq	a4,a5,80002602 <usertrap+0xd8>
    80002576:	14202773          	csrr	a4,scause
    8000257a:	47b5                	li	a5,13
    8000257c:	08f70363          	beq	a4,a5,80002602 <usertrap+0xd8>
    80002580:	142025f3          	csrr	a1,scause
    printk("usertrap(): unexpected scause 0x%lx pid=%d\n", r_scause(), p->pid);
    80002584:	5890                	lw	a2,48(s1)
    80002586:	00005517          	auipc	a0,0x5
    8000258a:	d0a50513          	addi	a0,a0,-758 # 80007290 <etext+0x290>
    8000258e:	f61fd0ef          	jal	800004ee <printk>
  asm volatile("csrr %0, sepc" : "=r"(x));
    80002592:	141025f3          	csrr	a1,sepc
  asm volatile("csrr %0, stval" : "=r"(x));
    80002596:	14302673          	csrr	a2,stval
    printk("            sepc=0x%lx stval=0x%lx\n", r_sepc(), r_stval());
    8000259a:	00005517          	auipc	a0,0x5
    8000259e:	d2650513          	addi	a0,a0,-730 # 800072c0 <etext+0x2c0>
    800025a2:	f4dfd0ef          	jal	800004ee <printk>
    setkilled(p);
    800025a6:	8526                	mv	a0,s1
    800025a8:	b1bff0ef          	jal	800020c2 <setkilled>
    800025ac:	a035                	j	800025d8 <usertrap+0xae>
    panic("usertrap: not from user mode");
    800025ae:	00005517          	auipc	a0,0x5
    800025b2:	cc250513          	addi	a0,a0,-830 # 80007270 <etext+0x270>
    800025b6:	a1efe0ef          	jal	800007d4 <panic>
    if (killed(p))
    800025ba:	b2dff0ef          	jal	800020e6 <killed>
    800025be:	ed15                	bnez	a0,800025fa <usertrap+0xd0>
    p->trapframe->epc += 4;
    800025c0:	6cb8                	ld	a4,88(s1)
    800025c2:	6f1c                	ld	a5,24(a4)
    800025c4:	0791                	addi	a5,a5,4
    800025c6:	ef1c                	sd	a5,24(a4)
  asm volatile("csrr %0, sstatus" : "=r"(x));
    800025c8:	100027f3          	csrr	a5,sstatus
  w_sstatus(r_sstatus() | SSTATUS_SIE);
    800025cc:	0027e793          	ori	a5,a5,2
  asm volatile("csrw sstatus, %0" : : "r"(x));
    800025d0:	10079073          	csrw	sstatus,a5
    syscall();
    800025d4:	246000ef          	jal	8000281a <syscall>
  if (killed(p))
    800025d8:	8526                	mv	a0,s1
    800025da:	b0dff0ef          	jal	800020e6 <killed>
    800025de:	e139                	bnez	a0,80002624 <usertrap+0xfa>
  prepare_return();
    800025e0:	e09ff0ef          	jal	800023e8 <prepare_return>
  uint64 satp = MAKE_SATP(p->pagetable);
    800025e4:	68a8                	ld	a0,80(s1)
    800025e6:	8131                	srli	a0,a0,0xc
    800025e8:	57fd                	li	a5,-1
    800025ea:	17fe                	slli	a5,a5,0x3f
    800025ec:	8d5d                	or	a0,a0,a5
}
    800025ee:	60e2                	ld	ra,24(sp)
    800025f0:	6442                	ld	s0,16(sp)
    800025f2:	64a2                	ld	s1,8(sp)
    800025f4:	6902                	ld	s2,0(sp)
    800025f6:	6105                	addi	sp,sp,32
    800025f8:	8082                	ret
      kexit(-1);
    800025fa:	557d                	li	a0,-1
    800025fc:	9bfff0ef          	jal	80001fba <kexit>
    80002600:	b7c1                	j	800025c0 <usertrap+0x96>
  asm volatile("csrr %0, stval" : "=r"(x));
    80002602:	143025f3          	csrr	a1,stval
  asm volatile("csrr %0, scause" : "=r"(x));
    80002606:	14202673          	csrr	a2,scause
             vmfault(p->pagetable, r_stval(), (r_scause() == 13) ? 1 : 0) !=
    8000260a:	164d                	addi	a2,a2,-13 # ff3 <_entry-0x7ffff00d>
    8000260c:	00163613          	seqz	a2,a2
    80002610:	68a8                	ld	a0,80(s1)
    80002612:	f25fe0ef          	jal	80001536 <vmfault>
  } else if ((r_scause() == 15 || r_scause() == 13) &&
    80002616:	f169                	bnez	a0,800025d8 <usertrap+0xae>
    80002618:	b7a5                	j	80002580 <usertrap+0x56>
  if (killed(p))
    8000261a:	8526                	mv	a0,s1
    8000261c:	acbff0ef          	jal	800020e6 <killed>
    80002620:	c511                	beqz	a0,8000262c <usertrap+0x102>
    80002622:	a011                	j	80002626 <usertrap+0xfc>
    80002624:	4901                	li	s2,0
    kexit(-1);
    80002626:	557d                	li	a0,-1
    80002628:	993ff0ef          	jal	80001fba <kexit>
  if (which_dev == 2)
    8000262c:	4789                	li	a5,2
    8000262e:	faf919e3          	bne	s2,a5,800025e0 <usertrap+0xb6>
    yield();
    80002632:	851ff0ef          	jal	80001e82 <yield>
    80002636:	b76d                	j	800025e0 <usertrap+0xb6>

0000000080002638 <kerneltrap>:
{
    80002638:	7179                	addi	sp,sp,-48
    8000263a:	f406                	sd	ra,40(sp)
    8000263c:	f022                	sd	s0,32(sp)
    8000263e:	ec26                	sd	s1,24(sp)
    80002640:	e84a                	sd	s2,16(sp)
    80002642:	e44e                	sd	s3,8(sp)
    80002644:	1800                	addi	s0,sp,48
  asm volatile("csrr %0, sepc" : "=r"(x));
    80002646:	14102973          	csrr	s2,sepc
  asm volatile("csrr %0, sstatus" : "=r"(x));
    8000264a:	100024f3          	csrr	s1,sstatus
  asm volatile("csrr %0, scause" : "=r"(x));
    8000264e:	142029f3          	csrr	s3,scause
  if ((sstatus & SSTATUS_SPP) == 0)
    80002652:	1004f793          	andi	a5,s1,256
    80002656:	c795                	beqz	a5,80002682 <kerneltrap+0x4a>
  asm volatile("csrr %0, sstatus" : "=r"(x));
    80002658:	100027f3          	csrr	a5,sstatus
  return (x & SSTATUS_SIE) != 0;
    8000265c:	8b89                	andi	a5,a5,2
  if (intr_get() != 0)
    8000265e:	eb85                	bnez	a5,8000268e <kerneltrap+0x56>
  if ((which_dev = devintr()) == 0) {
    80002660:	e57ff0ef          	jal	800024b6 <devintr>
    80002664:	c91d                	beqz	a0,8000269a <kerneltrap+0x62>
  if (which_dev == 2 && myproc() != 0)
    80002666:	4789                	li	a5,2
    80002668:	04f50a63          	beq	a0,a5,800026bc <kerneltrap+0x84>
  asm volatile("csrw sepc, %0" : : "r"(x));
    8000266c:	14191073          	csrw	sepc,s2
  asm volatile("csrw sstatus, %0" : : "r"(x));
    80002670:	10049073          	csrw	sstatus,s1
}
    80002674:	70a2                	ld	ra,40(sp)
    80002676:	7402                	ld	s0,32(sp)
    80002678:	64e2                	ld	s1,24(sp)
    8000267a:	6942                	ld	s2,16(sp)
    8000267c:	69a2                	ld	s3,8(sp)
    8000267e:	6145                	addi	sp,sp,48
    80002680:	8082                	ret
    panic("kerneltrap: not from supervisor mode");
    80002682:	00005517          	auipc	a0,0x5
    80002686:	c6650513          	addi	a0,a0,-922 # 800072e8 <etext+0x2e8>
    8000268a:	94afe0ef          	jal	800007d4 <panic>
    panic("kerneltrap: interrupts enabled");
    8000268e:	00005517          	auipc	a0,0x5
    80002692:	c8250513          	addi	a0,a0,-894 # 80007310 <etext+0x310>
    80002696:	93efe0ef          	jal	800007d4 <panic>
  asm volatile("csrr %0, sepc" : "=r"(x));
    8000269a:	14102673          	csrr	a2,sepc
  asm volatile("csrr %0, stval" : "=r"(x));
    8000269e:	143026f3          	csrr	a3,stval
    printk("scause=0x%lx sepc=0x%lx stval=0x%lx\n", scause, r_sepc(),
    800026a2:	85ce                	mv	a1,s3
    800026a4:	00005517          	auipc	a0,0x5
    800026a8:	c8c50513          	addi	a0,a0,-884 # 80007330 <etext+0x330>
    800026ac:	e43fd0ef          	jal	800004ee <printk>
    panic("kerneltrap");
    800026b0:	00005517          	auipc	a0,0x5
    800026b4:	ca850513          	addi	a0,a0,-856 # 80007358 <etext+0x358>
    800026b8:	91cfe0ef          	jal	800007d4 <panic>
  if (which_dev == 2 && myproc() != 0)
    800026bc:	9e8ff0ef          	jal	800018a4 <myproc>
    800026c0:	d555                	beqz	a0,8000266c <kerneltrap+0x34>
    yield();
    800026c2:	fc0ff0ef          	jal	80001e82 <yield>
    800026c6:	b75d                	j	8000266c <kerneltrap+0x34>

00000000800026c8 <argraw>:
  return strlen(buf);
}

static uint64
argraw(int n)
{
    800026c8:	1101                	addi	sp,sp,-32
    800026ca:	ec06                	sd	ra,24(sp)
    800026cc:	e822                	sd	s0,16(sp)
    800026ce:	e426                	sd	s1,8(sp)
    800026d0:	1000                	addi	s0,sp,32
    800026d2:	84aa                	mv	s1,a0
  struct proc *p = myproc();
    800026d4:	9d0ff0ef          	jal	800018a4 <myproc>
  switch (n) {
    800026d8:	4795                	li	a5,5
    800026da:	0497e163          	bltu	a5,s1,8000271c <argraw+0x54>
    800026de:	048a                	slli	s1,s1,0x2
    800026e0:	00005717          	auipc	a4,0x5
    800026e4:	07870713          	addi	a4,a4,120 # 80007758 <states.0+0x30>
    800026e8:	94ba                	add	s1,s1,a4
    800026ea:	409c                	lw	a5,0(s1)
    800026ec:	97ba                	add	a5,a5,a4
    800026ee:	8782                	jr	a5
  case 0:
    return p->trapframe->a0;
    800026f0:	6d3c                	ld	a5,88(a0)
    800026f2:	7ba8                	ld	a0,112(a5)
  case 5:
    return p->trapframe->a5;
  }
  panic("argraw");
  return -1;
}
    800026f4:	60e2                	ld	ra,24(sp)
    800026f6:	6442                	ld	s0,16(sp)
    800026f8:	64a2                	ld	s1,8(sp)
    800026fa:	6105                	addi	sp,sp,32
    800026fc:	8082                	ret
    return p->trapframe->a1;
    800026fe:	6d3c                	ld	a5,88(a0)
    80002700:	7fa8                	ld	a0,120(a5)
    80002702:	bfcd                	j	800026f4 <argraw+0x2c>
    return p->trapframe->a2;
    80002704:	6d3c                	ld	a5,88(a0)
    80002706:	63c8                	ld	a0,128(a5)
    80002708:	b7f5                	j	800026f4 <argraw+0x2c>
    return p->trapframe->a3;
    8000270a:	6d3c                	ld	a5,88(a0)
    8000270c:	67c8                	ld	a0,136(a5)
    8000270e:	b7dd                	j	800026f4 <argraw+0x2c>
    return p->trapframe->a4;
    80002710:	6d3c                	ld	a5,88(a0)
    80002712:	6bc8                	ld	a0,144(a5)
    80002714:	b7c5                	j	800026f4 <argraw+0x2c>
    return p->trapframe->a5;
    80002716:	6d3c                	ld	a5,88(a0)
    80002718:	6fc8                	ld	a0,152(a5)
    8000271a:	bfe9                	j	800026f4 <argraw+0x2c>
  panic("argraw");
    8000271c:	00005517          	auipc	a0,0x5
    80002720:	c4c50513          	addi	a0,a0,-948 # 80007368 <etext+0x368>
    80002724:	8b0fe0ef          	jal	800007d4 <panic>

0000000080002728 <fetchaddr>:
{
    80002728:	1101                	addi	sp,sp,-32
    8000272a:	ec06                	sd	ra,24(sp)
    8000272c:	e822                	sd	s0,16(sp)
    8000272e:	e426                	sd	s1,8(sp)
    80002730:	e04a                	sd	s2,0(sp)
    80002732:	1000                	addi	s0,sp,32
    80002734:	84aa                	mv	s1,a0
    80002736:	892e                	mv	s2,a1
  struct proc *p = myproc();
    80002738:	96cff0ef          	jal	800018a4 <myproc>
  if (addr >= p->sz ||
    8000273c:	653c                	ld	a5,72(a0)
    8000273e:	02f4f663          	bgeu	s1,a5,8000276a <fetchaddr+0x42>
      addr + sizeof(uint64) > p->sz) // both tests needed, in case of overflow
    80002742:	00848713          	addi	a4,s1,8
  if (addr >= p->sz ||
    80002746:	02e7e463          	bltu	a5,a4,8000276e <fetchaddr+0x46>
  if (copyin(p->pagetable, (char *)ip, addr, sizeof(*ip)) != 0)
    8000274a:	46a1                	li	a3,8
    8000274c:	8626                	mv	a2,s1
    8000274e:	85ca                	mv	a1,s2
    80002750:	6928                	ld	a0,80(a0)
    80002752:	f4bfe0ef          	jal	8000169c <copyin>
    80002756:	00a03533          	snez	a0,a0
    8000275a:	40a00533          	neg	a0,a0
}
    8000275e:	60e2                	ld	ra,24(sp)
    80002760:	6442                	ld	s0,16(sp)
    80002762:	64a2                	ld	s1,8(sp)
    80002764:	6902                	ld	s2,0(sp)
    80002766:	6105                	addi	sp,sp,32
    80002768:	8082                	ret
    return -1;
    8000276a:	557d                	li	a0,-1
    8000276c:	bfcd                	j	8000275e <fetchaddr+0x36>
    8000276e:	557d                	li	a0,-1
    80002770:	b7fd                	j	8000275e <fetchaddr+0x36>

0000000080002772 <fetchstr>:
{
    80002772:	7179                	addi	sp,sp,-48
    80002774:	f406                	sd	ra,40(sp)
    80002776:	f022                	sd	s0,32(sp)
    80002778:	ec26                	sd	s1,24(sp)
    8000277a:	e84a                	sd	s2,16(sp)
    8000277c:	e44e                	sd	s3,8(sp)
    8000277e:	1800                	addi	s0,sp,48
    80002780:	892a                	mv	s2,a0
    80002782:	84ae                	mv	s1,a1
    80002784:	89b2                	mv	s3,a2
  struct proc *p = myproc();
    80002786:	91eff0ef          	jal	800018a4 <myproc>
  if (copyinstr(p->pagetable, buf, addr, max) < 0)
    8000278a:	86ce                	mv	a3,s3
    8000278c:	864a                	mv	a2,s2
    8000278e:	85a6                	mv	a1,s1
    80002790:	6928                	ld	a0,80(a0)
    80002792:	ccdfe0ef          	jal	8000145e <copyinstr>
    80002796:	00054c63          	bltz	a0,800027ae <fetchstr+0x3c>
  return strlen(buf);
    8000279a:	8526                	mv	a0,s1
    8000279c:	e4cfe0ef          	jal	80000de8 <strlen>
}
    800027a0:	70a2                	ld	ra,40(sp)
    800027a2:	7402                	ld	s0,32(sp)
    800027a4:	64e2                	ld	s1,24(sp)
    800027a6:	6942                	ld	s2,16(sp)
    800027a8:	69a2                	ld	s3,8(sp)
    800027aa:	6145                	addi	sp,sp,48
    800027ac:	8082                	ret
    return -1;
    800027ae:	557d                	li	a0,-1
    800027b0:	bfc5                	j	800027a0 <fetchstr+0x2e>

00000000800027b2 <argint>:

// Fetch the nth 32-bit system call argument.
void
argint(int n, int *ip)
{
    800027b2:	1101                	addi	sp,sp,-32
    800027b4:	ec06                	sd	ra,24(sp)
    800027b6:	e822                	sd	s0,16(sp)
    800027b8:	e426                	sd	s1,8(sp)
    800027ba:	1000                	addi	s0,sp,32
    800027bc:	84ae                	mv	s1,a1
  *ip = argraw(n);
    800027be:	f0bff0ef          	jal	800026c8 <argraw>
    800027c2:	c088                	sw	a0,0(s1)
}
    800027c4:	60e2                	ld	ra,24(sp)
    800027c6:	6442                	ld	s0,16(sp)
    800027c8:	64a2                	ld	s1,8(sp)
    800027ca:	6105                	addi	sp,sp,32
    800027cc:	8082                	ret

00000000800027ce <argaddr>:
// Retrieve an argument as a pointer.
// Doesn't check for legality, since
// copyin/copyout will do that.
void
argaddr(int n, uint64 *ip)
{
    800027ce:	1101                	addi	sp,sp,-32
    800027d0:	ec06                	sd	ra,24(sp)
    800027d2:	e822                	sd	s0,16(sp)
    800027d4:	e426                	sd	s1,8(sp)
    800027d6:	1000                	addi	s0,sp,32
    800027d8:	84ae                	mv	s1,a1
  *ip = argraw(n);
    800027da:	eefff0ef          	jal	800026c8 <argraw>
    800027de:	e088                	sd	a0,0(s1)
}
    800027e0:	60e2                	ld	ra,24(sp)
    800027e2:	6442                	ld	s0,16(sp)
    800027e4:	64a2                	ld	s1,8(sp)
    800027e6:	6105                	addi	sp,sp,32
    800027e8:	8082                	ret

00000000800027ea <argstr>:
// Fetch the nth word-sized system call argument as a null-terminated string.
// Copies into buf, at most max.
// Returns string length if OK (not including nul), -1 if error.
int
argstr(int n, char *buf, int max)
{
    800027ea:	7179                	addi	sp,sp,-48
    800027ec:	f406                	sd	ra,40(sp)
    800027ee:	f022                	sd	s0,32(sp)
    800027f0:	ec26                	sd	s1,24(sp)
    800027f2:	e84a                	sd	s2,16(sp)
    800027f4:	1800                	addi	s0,sp,48
    800027f6:	84ae                	mv	s1,a1
    800027f8:	8932                	mv	s2,a2
  uint64 addr;
  argaddr(n, &addr);
    800027fa:	fd840593          	addi	a1,s0,-40
    800027fe:	fd1ff0ef          	jal	800027ce <argaddr>
  return fetchstr(addr, buf, max);
    80002802:	864a                	mv	a2,s2
    80002804:	85a6                	mv	a1,s1
    80002806:	fd843503          	ld	a0,-40(s0)
    8000280a:	f69ff0ef          	jal	80002772 <fetchstr>
}
    8000280e:	70a2                	ld	ra,40(sp)
    80002810:	7402                	ld	s0,32(sp)
    80002812:	64e2                	ld	s1,24(sp)
    80002814:	6942                	ld	s2,16(sp)
    80002816:	6145                	addi	sp,sp,48
    80002818:	8082                	ret

000000008000281a <syscall>:
  // clang-format on
};

void
syscall(void)
{
    8000281a:	1101                	addi	sp,sp,-32
    8000281c:	ec06                	sd	ra,24(sp)
    8000281e:	e822                	sd	s0,16(sp)
    80002820:	e426                	sd	s1,8(sp)
    80002822:	e04a                	sd	s2,0(sp)
    80002824:	1000                	addi	s0,sp,32
  int num;
  struct proc *p = myproc();
    80002826:	87eff0ef          	jal	800018a4 <myproc>
    8000282a:	84aa                	mv	s1,a0

  num = p->trapframe->a7;
    8000282c:	05853903          	ld	s2,88(a0)
    80002830:	0a893783          	ld	a5,168(s2)
    80002834:	0007869b          	sext.w	a3,a5
  if (num > 0 && num < NELEM(syscalls) && syscalls[num]) {
    80002838:	37fd                	addiw	a5,a5,-1
    8000283a:	4755                	li	a4,21
    8000283c:	00f76f63          	bltu	a4,a5,8000285a <syscall+0x40>
    80002840:	00369713          	slli	a4,a3,0x3
    80002844:	00005797          	auipc	a5,0x5
    80002848:	f2c78793          	addi	a5,a5,-212 # 80007770 <syscalls>
    8000284c:	97ba                	add	a5,a5,a4
    8000284e:	639c                	ld	a5,0(a5)
    80002850:	c789                	beqz	a5,8000285a <syscall+0x40>
    // Use num to lookup the system call function for num, call it,
    // and store its return value in p->trapframe->a0
    p->trapframe->a0 = syscalls[num]();
    80002852:	9782                	jalr	a5
    80002854:	06a93823          	sd	a0,112(s2)
    80002858:	a829                	j	80002872 <syscall+0x58>
  } else {
    printk("%d %s: unknown sys call %d\n", p->pid, p->name, num);
    8000285a:	15848613          	addi	a2,s1,344
    8000285e:	588c                	lw	a1,48(s1)
    80002860:	00005517          	auipc	a0,0x5
    80002864:	b1050513          	addi	a0,a0,-1264 # 80007370 <etext+0x370>
    80002868:	c87fd0ef          	jal	800004ee <printk>
    p->trapframe->a0 = -1;
    8000286c:	6cbc                	ld	a5,88(s1)
    8000286e:	577d                	li	a4,-1
    80002870:	fbb8                	sd	a4,112(a5)
  }
}
    80002872:	60e2                	ld	ra,24(sp)
    80002874:	6442                	ld	s0,16(sp)
    80002876:	64a2                	ld	s1,8(sp)
    80002878:	6902                	ld	s2,0(sp)
    8000287a:	6105                	addi	sp,sp,32
    8000287c:	8082                	ret

000000008000287e <sys_exit>:
#include "proc.h"
#include "vm.h"

uint64
sys_exit(void)
{
    8000287e:	1101                	addi	sp,sp,-32
    80002880:	ec06                	sd	ra,24(sp)
    80002882:	e822                	sd	s0,16(sp)
    80002884:	1000                	addi	s0,sp,32
  int n;
  argint(0, &n);
    80002886:	fec40593          	addi	a1,s0,-20
    8000288a:	4501                	li	a0,0
    8000288c:	f27ff0ef          	jal	800027b2 <argint>
  kexit(n);
    80002890:	fec42503          	lw	a0,-20(s0)
    80002894:	f26ff0ef          	jal	80001fba <kexit>
  return 0; // not reached
}
    80002898:	4501                	li	a0,0
    8000289a:	60e2                	ld	ra,24(sp)
    8000289c:	6442                	ld	s0,16(sp)
    8000289e:	6105                	addi	sp,sp,32
    800028a0:	8082                	ret

00000000800028a2 <sys_getpid>:

uint64
sys_getpid(void)
{
    800028a2:	1141                	addi	sp,sp,-16
    800028a4:	e406                	sd	ra,8(sp)
    800028a6:	e022                	sd	s0,0(sp)
    800028a8:	0800                	addi	s0,sp,16
  return myproc()->pid;
    800028aa:	ffbfe0ef          	jal	800018a4 <myproc>
}
    800028ae:	5908                	lw	a0,48(a0)
    800028b0:	60a2                	ld	ra,8(sp)
    800028b2:	6402                	ld	s0,0(sp)
    800028b4:	0141                	addi	sp,sp,16
    800028b6:	8082                	ret

00000000800028b8 <sys_fork>:

uint64
sys_fork(void)
{
    800028b8:	1141                	addi	sp,sp,-16
    800028ba:	e406                	sd	ra,8(sp)
    800028bc:	e022                	sd	s0,0(sp)
    800028be:	0800                	addi	s0,sp,16
  return kfork();
    800028c0:	b48ff0ef          	jal	80001c08 <kfork>
}
    800028c4:	60a2                	ld	ra,8(sp)
    800028c6:	6402                	ld	s0,0(sp)
    800028c8:	0141                	addi	sp,sp,16
    800028ca:	8082                	ret

00000000800028cc <sys_wait>:

uint64
sys_wait(void)
{
    800028cc:	1101                	addi	sp,sp,-32
    800028ce:	ec06                	sd	ra,24(sp)
    800028d0:	e822                	sd	s0,16(sp)
    800028d2:	1000                	addi	s0,sp,32
  uint64 p;
  argaddr(0, &p);
    800028d4:	fe840593          	addi	a1,s0,-24
    800028d8:	4501                	li	a0,0
    800028da:	ef5ff0ef          	jal	800027ce <argaddr>
  return kwait(p);
    800028de:	fe843503          	ld	a0,-24(s0)
    800028e2:	82fff0ef          	jal	80002110 <kwait>
}
    800028e6:	60e2                	ld	ra,24(sp)
    800028e8:	6442                	ld	s0,16(sp)
    800028ea:	6105                	addi	sp,sp,32
    800028ec:	8082                	ret

00000000800028ee <sys_sbrk>:

uint64
sys_sbrk(void)
{
    800028ee:	7179                	addi	sp,sp,-48
    800028f0:	f406                	sd	ra,40(sp)
    800028f2:	f022                	sd	s0,32(sp)
    800028f4:	ec26                	sd	s1,24(sp)
    800028f6:	1800                	addi	s0,sp,48
  uint64 addr;
  int t;
  int n;

  argint(0, &n);
    800028f8:	fd840593          	addi	a1,s0,-40
    800028fc:	4501                	li	a0,0
    800028fe:	eb5ff0ef          	jal	800027b2 <argint>
  argint(1, &t);
    80002902:	fdc40593          	addi	a1,s0,-36
    80002906:	4505                	li	a0,1
    80002908:	eabff0ef          	jal	800027b2 <argint>
  addr = myproc()->sz;
    8000290c:	f99fe0ef          	jal	800018a4 <myproc>
    80002910:	6524                	ld	s1,72(a0)

  if (t == SBRK_EAGER || n < 0) {
    80002912:	fdc42703          	lw	a4,-36(s0)
    80002916:	4785                	li	a5,1
    80002918:	02f70763          	beq	a4,a5,80002946 <sys_sbrk+0x58>
    8000291c:	fd842783          	lw	a5,-40(s0)
    80002920:	0207c363          	bltz	a5,80002946 <sys_sbrk+0x58>
    }
  } else {
    // Lazily allocate memory for this process: increase its memory
    // size but don't allocate memory. If the processes uses the
    // memory, vmfault() will allocate it.
    if (addr + n < addr)
    80002924:	97a6                	add	a5,a5,s1
    80002926:	0297ee63          	bltu	a5,s1,80002962 <sys_sbrk+0x74>
      return -1;
    if (addr + n > TRAPFRAME)
    8000292a:	02000737          	lui	a4,0x2000
    8000292e:	177d                	addi	a4,a4,-1 # 1ffffff <_entry-0x7e000001>
    80002930:	0736                	slli	a4,a4,0xd
    80002932:	02f76a63          	bltu	a4,a5,80002966 <sys_sbrk+0x78>
      return -1;
    myproc()->sz += n;
    80002936:	f6ffe0ef          	jal	800018a4 <myproc>
    8000293a:	fd842703          	lw	a4,-40(s0)
    8000293e:	653c                	ld	a5,72(a0)
    80002940:	97ba                	add	a5,a5,a4
    80002942:	e53c                	sd	a5,72(a0)
    80002944:	a039                	j	80002952 <sys_sbrk+0x64>
    if (growproc(n) < 0) {
    80002946:	fd842503          	lw	a0,-40(s0)
    8000294a:	a5cff0ef          	jal	80001ba6 <growproc>
    8000294e:	00054863          	bltz	a0,8000295e <sys_sbrk+0x70>
  }
  return addr;
}
    80002952:	8526                	mv	a0,s1
    80002954:	70a2                	ld	ra,40(sp)
    80002956:	7402                	ld	s0,32(sp)
    80002958:	64e2                	ld	s1,24(sp)
    8000295a:	6145                	addi	sp,sp,48
    8000295c:	8082                	ret
      return -1;
    8000295e:	54fd                	li	s1,-1
    80002960:	bfcd                	j	80002952 <sys_sbrk+0x64>
      return -1;
    80002962:	54fd                	li	s1,-1
    80002964:	b7fd                	j	80002952 <sys_sbrk+0x64>
      return -1;
    80002966:	54fd                	li	s1,-1
    80002968:	b7ed                	j	80002952 <sys_sbrk+0x64>

000000008000296a <sys_pause>:

uint64
sys_pause(void)
{
    8000296a:	7139                	addi	sp,sp,-64
    8000296c:	fc06                	sd	ra,56(sp)
    8000296e:	f822                	sd	s0,48(sp)
    80002970:	f04a                	sd	s2,32(sp)
    80002972:	0080                	addi	s0,sp,64
  int n;
  uint ticks0;

  argint(0, &n);
    80002974:	fcc40593          	addi	a1,s0,-52
